                              1 ;--------------------------------------------------------
                              2 ; File Created by SDCC : FreeWare ANSI-C Compiler
                              3 ; Version 2.2.1 Fri Jan 31 01:26:11 2020
                              4 
                              5 ;--------------------------------------------------------
                              6 	.module lcc140960
                              7 	
                              8 ;--------------------------------------------------------
                              9 ; Public variables in this module
                             10 ;--------------------------------------------------------
                             11 	.globl _main
                             12 	.globl _jump
                             13 	.globl _wouldhitsurface
                             14 	.globl _checkcollisions
                             15 	.globl _setupsmiley
                             16 	.globl _setupkirby
                             17 	.globl _setupbomb
                             18 	.globl _movegamecharacterlarge
                             19 	.globl _movegamecharacter
                             20 	.globl _printf
                             21 	.globl _move_sprite
                             22 	.globl _set_sprite_tile
                             23 	.globl _set_sprite_data
                             24 	.globl _joypad
                             25 	.globl _delay
                             26 	.globl _fallspeed
                             27 	.globl _speedx
                             28 	.globl _spritestate
                             29 	.globl _floorYposition
                             30 	.globl _currentspeedY
                             31 	.globl _gravity
                             32 	.globl _jumping
                             33 	.globl _smiley
                             34 	.globl _kirby
                             35 	.globl _bomb
                             36 	.globl _spritesize
                             37 	.globl _kirbs16
                             38 	.globl _main
                             39 	.globl _jump
                             40 	.globl _wouldhitsurface
                             41 	.globl _checkcollisions
                             42 	.globl _setupsmiley
                             43 	.globl _setupkirby
                             44 	.globl _setupbomb
                             45 	.globl _movegamecharacterlarge
                             46 	.globl _movegamecharacter
                             47 ;--------------------------------------------------------
                             48 ; Externals used
                             49 ;--------------------------------------------------------
                             50 	.globl _IE_REG
                             51 	.globl _SVBK_REG
                             52 	.globl _OCPD_REG
                             53 	.globl _OCPS_REG
                             54 	.globl _BCPD_REG
                             55 	.globl _BCPS_REG
                             56 	.globl _RP_REG
                             57 	.globl _HDMA5_REG
                             58 	.globl _HDMA4_REG
                             59 	.globl _HDMA3_REG
                             60 	.globl _HDMA2_REG
                             61 	.globl _HDMA1_REG
                             62 	.globl _VBK_REG
                             63 	.globl _KEY1_REG
                             64 	.globl _WX_REG
                             65 	.globl _WY_REG
                             66 	.globl _OBP1_REG
                             67 	.globl _OBP0_REG
                             68 	.globl _BGP_REG
                             69 	.globl _DMA_REG
                             70 	.globl _LYC_REG
                             71 	.globl _LY_REG
                             72 	.globl _SCX_REG
                             73 	.globl _SCY_REG
                             74 	.globl _STAT_REG
                             75 	.globl _LCDC_REG
                             76 	.globl _NR52_REG
                             77 	.globl _NR51_REG
                             78 	.globl _NR50_REG
                             79 	.globl _NR44_REG
                             80 	.globl _NR43_REG
                             81 	.globl _NR42_REG
                             82 	.globl _NR41_REG
                             83 	.globl _NR34_REG
                             84 	.globl _NR33_REG
                             85 	.globl _NR32_REG
                             86 	.globl _NR31_REG
                             87 	.globl _NR30_REG
                             88 	.globl _NR24_REG
                             89 	.globl _NR23_REG
                             90 	.globl _NR22_REG
                             91 	.globl _NR21_REG
                             92 	.globl _NR14_REG
                             93 	.globl _NR13_REG
                             94 	.globl _NR12_REG
                             95 	.globl _NR11_REG
                             96 	.globl _NR10_REG
                             97 	.globl _IF_REG
                             98 	.globl _TAC_REG
                             99 	.globl _TMA_REG
                            100 	.globl _TIMA_REG
                            101 	.globl _DIV_REG
                            102 	.globl _SC_REG
                            103 	.globl _SB_REG
                            104 	.globl _P1_REG
                            105 	.globl __io_out
                            106 	.globl __io_in
                            107 	.globl __io_status
                            108 	.globl _sys_time
                            109 	.globl __cpu
                            110 ;--------------------------------------------------------
                            111 ; special function registers
                            112 ;--------------------------------------------------------
                            113 ;--------------------------------------------------------
                            114 ; special function bits 
                            115 ;--------------------------------------------------------
                            116 ;--------------------------------------------------------
                            117 ; internal ram data
                            118 ;--------------------------------------------------------
                            119 	.area _DATA
   0000                     120 _kirbs16::
   0000                     121 	.ds 224
   00E0                     122 _spritesize::
   00E0                     123 	.ds 1
   00E1                     124 _bomb::
   00E1                     125 	.ds 8
   00E9                     126 _kirby::
   00E9                     127 	.ds 8
   00F1                     128 _smiley::
   00F1                     129 	.ds 10
   00FB                     130 _jumping::
   00FB                     131 	.ds 1
   00FC                     132 _gravity::
   00FC                     133 	.ds 1
   00FD                     134 _currentspeedY::
   00FD                     135 	.ds 1
   00FE                     136 _floorYposition::
   00FE                     137 	.ds 1
   00FF                     138 _spritestate::
   00FF                     139 	.ds 1
   0100                     140 _speedx::
   0100                     141 	.ds 1
   0101                     142 _fallspeed::
   0101                     143 	.ds 1
                            144 ;--------------------------------------------------------
                            145 ; overlayable items in internal ram 
                            146 ;--------------------------------------------------------
                            147 	.area _OVERLAY
                            148 ;--------------------------------------------------------
                            149 ; indirectly addressable internal ram data
                            150 ;--------------------------------------------------------
                            151 	.area _ISEG
                            152 ;--------------------------------------------------------
                            153 ; bit data
                            154 ;--------------------------------------------------------
                            155 	.area _BSEG
                            156 ;--------------------------------------------------------
                            157 ; external ram data
                            158 ;--------------------------------------------------------
                            159 	.area _XSEG
                            160 ;--------------------------------------------------------
                            161 ; global & static initialisations
                            162 ;--------------------------------------------------------
                            163 	.area _GSINIT
                            164 	.area _GSFINAL
                            165 	.area _GSINIT
                            166 ;	sprite_run.c 74
                            167 ; genAssign (pointer)
   0000 11 00 00            168 	ld	de,#_kirbs16 + 0
   0003 3E 07               169 	ld	a,#0x07
   0005 12                  170 	ld	(de),a
                            171 ; genPlus
                            172 ; genPlusIncr
   0006 11 01 00            173 	ld	de,#_kirbs16 + 0 + 1
                            174 ; genAssign (pointer)
   0009 3E 07               175 	ld	a,#0x07
   000B 12                  176 	ld	(de),a
                            177 ; genPlus
                            178 ; genPlusIncr
   000C 11 02 00            179 	ld	de,#_kirbs16 + 0 + 2
                            180 ; genAssign (pointer)
   000F 3E 1C               181 	ld	a,#0x1C
   0011 12                  182 	ld	(de),a
                            183 ; genPlus
                            184 ; genPlusIncr
   0012 11 03 00            185 	ld	de,#_kirbs16 + 0 + 3
                            186 ; genAssign (pointer)
   0015 3E 18               187 	ld	a,#0x18
   0017 12                  188 	ld	(de),a
                            189 ; genPlus
                            190 ; genPlusIncr
   0018 11 04 00            191 	ld	de,#_kirbs16 + 0 + 4
                            192 ; genAssign (pointer)
   001B 3E 30               193 	ld	a,#0x30
   001D 12                  194 	ld	(de),a
                            195 ; genPlus
                            196 ; genPlusIncr
   001E 11 05 00            197 	ld	de,#_kirbs16 + 0 + 5
                            198 ; genAssign (pointer)
   0021 3E 20               199 	ld	a,#0x20
   0023 12                  200 	ld	(de),a
                            201 ; genPlus
                            202 ; genPlusIncr
   0024 11 06 00            203 	ld	de,#_kirbs16 + 0 + 6
                            204 ; genAssign (pointer)
   0027 3E 30               205 	ld	a,#0x30
   0029 12                  206 	ld	(de),a
                            207 ; genPlus
                            208 ; genPlusIncr
   002A 11 07 00            209 	ld	de,#_kirbs16 + 0 + 7
                            210 ; genAssign (pointer)
   002D 3E 20               211 	ld	a,#0x20
   002F 12                  212 	ld	(de),a
                            213 ; genPlus
                            214 ; genPlusIncr
   0030 11 08 00            215 	ld	de,#_kirbs16 + 0 + 8
                            216 ; genAssign (pointer)
   0033 3E 60               217 	ld	a,#0x60
   0035 12                  218 	ld	(de),a
                            219 ; genPlus
                            220 ; genPlusIncr
   0036 11 09 00            221 	ld	de,#_kirbs16 + 0 + 9
                            222 ; genAssign (pointer)
   0039 3E 40               223 	ld	a,#0x40
   003B 12                  224 	ld	(de),a
                            225 ; genPlus
                            226 ; genPlusIncr
   003C 11 0A 00            227 	ld	de,#_kirbs16 + 0 + 10
                            228 ; genAssign (pointer)
   003F 3E 40               229 	ld	a,#0x40
   0041 12                  230 	ld	(de),a
                            231 ; genPlus
                            232 ; genPlusIncr
   0042 11 0B 00            233 	ld	de,#_kirbs16 + 0 + 11
                            234 ; genAssign (pointer)
   0045 3E 40               235 	ld	a,#0x40
   0047 12                  236 	ld	(de),a
                            237 ; genPlus
                            238 ; genPlusIncr
   0048 11 0C 00            239 	ld	de,#_kirbs16 + 0 + 12
                            240 ; genAssign (pointer)
   004B 3E C0               241 	ld	a,#0xC0
   004D 12                  242 	ld	(de),a
                            243 ; genPlus
                            244 ; genPlusIncr
   004E 11 0D 00            245 	ld	de,#_kirbs16 + 0 + 13
                            246 ; genAssign (pointer)
   0051 3E 80               247 	ld	a,#0x80
   0053 12                  248 	ld	(de),a
                            249 ; genPlus
                            250 ; genPlusIncr
   0054 11 0E 00            251 	ld	de,#_kirbs16 + 0 + 14
                            252 ; genAssign (pointer)
   0057 3E 80               253 	ld	a,#0x80
   0059 12                  254 	ld	(de),a
                            255 ; genPlus
                            256 ; genPlusIncr
   005A 11 0F 00            257 	ld	de,#_kirbs16 + 0 + 15
                            258 ; genAssign (pointer)
   005D 3E 80               259 	ld	a,#0x80
   005F 12                  260 	ld	(de),a
                            261 ; genPlus
                            262 ; genPlusIncr
   0060 11 10 00            263 	ld	de,#_kirbs16 + 0 + 16
                            264 ; genAssign (pointer)
   0063 3E C0               265 	ld	a,#0xC0
   0065 12                  266 	ld	(de),a
                            267 ; genPlus
                            268 ; genPlusIncr
   0066 11 11 00            269 	ld	de,#_kirbs16 + 0 + 17
                            270 ; genAssign (pointer)
   0069 3E C0               271 	ld	a,#0xC0
   006B 12                  272 	ld	(de),a
                            273 ; genPlus
                            274 ; genPlusIncr
   006C 11 12 00            275 	ld	de,#_kirbs16 + 0 + 18
                            276 ; genAssign (pointer)
   006F 3E F0               277 	ld	a,#0xF0
   0071 12                  278 	ld	(de),a
                            279 ; genPlus
                            280 ; genPlusIncr
   0072 11 13 00            281 	ld	de,#_kirbs16 + 0 + 19
                            282 ; genAssign (pointer)
   0075 3E 30               283 	ld	a,#0x30
   0077 12                  284 	ld	(de),a
                            285 ; genPlus
                            286 ; genPlusIncr
   0078 11 14 00            287 	ld	de,#_kirbs16 + 0 + 20
                            288 ; genAssign (pointer)
   007B 3E 38               289 	ld	a,#0x38
   007D 12                  290 	ld	(de),a
                            291 ; genPlus
                            292 ; genPlusIncr
   007E 11 15 00            293 	ld	de,#_kirbs16 + 0 + 21
                            294 ; genAssign (pointer)
   0081 3E 08               295 	ld	a,#0x08
   0083 12                  296 	ld	(de),a
                            297 ; genPlus
                            298 ; genPlusIncr
   0084 11 16 00            299 	ld	de,#_kirbs16 + 0 + 22
                            300 ; genAssign (pointer)
   0087 3E 18               301 	ld	a,#0x18
   0089 12                  302 	ld	(de),a
                            303 ; genPlus
                            304 ; genPlusIncr
   008A 11 17 00            305 	ld	de,#_kirbs16 + 0 + 23
                            306 ; genAssign (pointer)
   008D 3E 08               307 	ld	a,#0x08
   008F 12                  308 	ld	(de),a
                            309 ; genPlus
                            310 ; genPlusIncr
   0090 11 18 00            311 	ld	de,#_kirbs16 + 0 + 24
                            312 ; genAssign (pointer)
   0093 3E 0C               313 	ld	a,#0x0C
   0095 12                  314 	ld	(de),a
                            315 ; genPlus
                            316 ; genPlusIncr
   0096 11 19 00            317 	ld	de,#_kirbs16 + 0 + 25
                            318 ; genAssign (pointer)
   0099 3E 04               319 	ld	a,#0x04
   009B 12                  320 	ld	(de),a
                            321 ; genPlus
                            322 ; genPlusIncr
   009C 11 1A 00            323 	ld	de,#_kirbs16 + 0 + 26
                            324 ; genAssign (pointer)
   009F 3E 54               325 	ld	a,#0x54
   00A1 12                  326 	ld	(de),a
                            327 ; genPlus
                            328 ; genPlusIncr
   00A2 11 1B 00            329 	ld	de,#_kirbs16 + 0 + 27
                            330 ; genAssign (pointer)
   00A5 3E 54               331 	ld	a,#0x54
   00A7 12                  332 	ld	(de),a
                            333 ; genPlus
                            334 ; genPlusIncr
   00A8 11 1C 00            335 	ld	de,#_kirbs16 + 0 + 28
                            336 ; genAssign (pointer)
   00AB 3E 56               337 	ld	a,#0x56
   00AD 12                  338 	ld	(de),a
                            339 ; genPlus
                            340 ; genPlusIncr
   00AE 11 1D 00            341 	ld	de,#_kirbs16 + 0 + 29
                            342 ; genAssign (pointer)
   00B1 3E 52               343 	ld	a,#0x52
   00B3 12                  344 	ld	(de),a
                            345 ; genPlus
                            346 ; genPlusIncr
   00B4 11 1E 00            347 	ld	de,#_kirbs16 + 0 + 30
                            348 ; genAssign (pointer)
   00B7 3E 52               349 	ld	a,#0x52
   00B9 12                  350 	ld	(de),a
                            351 ; genPlus
                            352 ; genPlusIncr
   00BA 11 1F 00            353 	ld	de,#_kirbs16 + 0 + 31
                            354 ; genAssign (pointer)
   00BD 3E 52               355 	ld	a,#0x52
   00BF 12                  356 	ld	(de),a
                            357 ; genPlus
                            358 ; genPlusIncr
   00C0 11 20 00            359 	ld	de,#_kirbs16 + 0 + 32
                            360 ; genAssign (pointer)
   00C3 3E C0               361 	ld	a,#0xC0
   00C5 12                  362 	ld	(de),a
                            363 ; genPlus
                            364 ; genPlusIncr
   00C6 11 21 00            365 	ld	de,#_kirbs16 + 0 + 33
                            366 ; genAssign (pointer)
   00C9 3E 80               367 	ld	a,#0x80
   00CB 12                  368 	ld	(de),a
                            369 ; genPlus
                            370 ; genPlusIncr
   00CC 11 22 00            371 	ld	de,#_kirbs16 + 0 + 34
                            372 ; genAssign (pointer)
   00CF 3E E0               373 	ld	a,#0xE0
   00D1 12                  374 	ld	(de),a
                            375 ; genPlus
                            376 ; genPlusIncr
   00D2 11 23 00            377 	ld	de,#_kirbs16 + 0 + 35
                            378 ; genAssign (pointer)
   00D5 3E 80               379 	ld	a,#0x80
   00D7 12                  380 	ld	(de),a
                            381 ; genPlus
                            382 ; genPlusIncr
   00D8 11 24 00            383 	ld	de,#_kirbs16 + 0 + 36
                            384 ; genAssign (pointer)
   00DB 3E 70               385 	ld	a,#0x70
   00DD 12                  386 	ld	(de),a
                            387 ; genPlus
                            388 ; genPlusIncr
   00DE 11 25 00            389 	ld	de,#_kirbs16 + 0 + 37
                            390 ; genAssign (pointer)
   00E1 3E 40               391 	ld	a,#0x40
   00E3 12                  392 	ld	(de),a
                            393 ; genPlus
                            394 ; genPlusIncr
   00E4 11 26 00            395 	ld	de,#_kirbs16 + 0 + 38
                            396 ; genAssign (pointer)
   00E7 3E 38               397 	ld	a,#0x38
   00E9 12                  398 	ld	(de),a
                            399 ; genPlus
                            400 ; genPlusIncr
   00EA 11 27 00            401 	ld	de,#_kirbs16 + 0 + 39
                            402 ; genAssign (pointer)
   00ED 3E 30               403 	ld	a,#0x30
   00EF 12                  404 	ld	(de),a
                            405 ; genPlus
                            406 ; genPlusIncr
   00F0 11 28 00            407 	ld	de,#_kirbs16 + 0 + 40
                            408 ; genAssign (pointer)
   00F3 3E 3D               409 	ld	a,#0x3D
   00F5 12                  410 	ld	(de),a
                            411 ; genPlus
                            412 ; genPlusIncr
   00F6 11 29 00            413 	ld	de,#_kirbs16 + 0 + 41
                            414 ; genAssign (pointer)
   00F9 3E 38               415 	ld	a,#0x38
   00FB 12                  416 	ld	(de),a
                            417 ; genPlus
                            418 ; genPlusIncr
   00FC 11 2A 00            419 	ld	de,#_kirbs16 + 0 + 42
                            420 ; genAssign (pointer)
   00FF 3E 7F               421 	ld	a,#0x7F
   0101 12                  422 	ld	(de),a
                            423 ; genPlus
                            424 ; genPlusIncr
   0102 11 2B 00            425 	ld	de,#_kirbs16 + 0 + 43
                            426 ; genAssign (pointer)
   0105 3E 4F               427 	ld	a,#0x4F
   0107 12                  428 	ld	(de),a
                            429 ; genPlus
                            430 ; genPlusIncr
   0108 11 2C 00            431 	ld	de,#_kirbs16 + 0 + 44
                            432 ; genAssign (pointer)
   010B 3E FC               433 	ld	a,#0xFC
   010D 12                  434 	ld	(de),a
                            435 ; genPlus
                            436 ; genPlusIncr
   010E 11 2D 00            437 	ld	de,#_kirbs16 + 0 + 45
                            438 ; genAssign (pointer)
   0111 3E 84               439 	ld	a,#0x84
   0113 12                  440 	ld	(de),a
                            441 ; genPlus
                            442 ; genPlusIncr
   0114 11 2E 00            443 	ld	de,#_kirbs16 + 0 + 46
                            444 ; genAssign (pointer)
   0117 3E 78               445 	ld	a,#0x78
   0119 12                  446 	ld	(de),a
                            447 ; genPlus
                            448 ; genPlusIncr
   011A 11 2F 00            449 	ld	de,#_kirbs16 + 0 + 47
                            450 ; genAssign (pointer)
   011D 3E 78               451 	ld	a,#0x78
   011F 12                  452 	ld	(de),a
                            453 ; genPlus
                            454 ; genPlusIncr
   0120 11 30 00            455 	ld	de,#_kirbs16 + 0 + 48
                            456 ; genAssign (pointer)
   0123 3E 01               457 	ld	a,#0x01
   0125 12                  458 	ld	(de),a
                            459 ; genPlus
                            460 ; genPlusIncr
   0126 11 31 00            461 	ld	de,#_kirbs16 + 0 + 49
                            462 ; genAssign (pointer)
   0129 3E D9               463 	ld	a,#0xD9
   012B 12                  464 	ld	(de),a
                            465 ; genPlus
                            466 ; genPlusIncr
   012C 11 32 00            467 	ld	de,#_kirbs16 + 0 + 50
                            468 ; genAssign (pointer)
   012F 3E 01               469 	ld	a,#0x01
   0131 12                  470 	ld	(de),a
                            471 ; genPlus
                            472 ; genPlusIncr
   0132 11 33 00            473 	ld	de,#_kirbs16 + 0 + 51
                            474 ; genAssign (pointer)
   0135 3E 01               475 	ld	a,#0x01
   0137 12                  476 	ld	(de),a
                            477 ; genPlus
                            478 ; genPlusIncr
   0138 11 34 00            479 	ld	de,#_kirbs16 + 0 + 52
                            480 ; genAssign (pointer)
   013B 3E 25               481 	ld	a,#0x25
   013D 12                  482 	ld	(de),a
                            483 ; genPlus
                            484 ; genPlusIncr
   013E 11 35 00            485 	ld	de,#_kirbs16 + 0 + 53
                            486 ; genAssign (pointer)
   0141 3E 25               487 	ld	a,#0x25
   0143 12                  488 	ld	(de),a
                            489 ; genPlus
                            490 ; genPlusIncr
   0144 11 36 00            491 	ld	de,#_kirbs16 + 0 + 54
                            492 ; genAssign (pointer)
   0147 3E 0E               493 	ld	a,#0x0E
   0149 12                  494 	ld	(de),a
                            495 ; genPlus
                            496 ; genPlusIncr
   014A 11 37 00            497 	ld	de,#_kirbs16 + 0 + 55
                            498 ; genAssign (pointer)
   014D 3E 06               499 	ld	a,#0x06
   014F 12                  500 	ld	(de),a
                            501 ; genPlus
                            502 ; genPlusIncr
   0150 11 38 00            503 	ld	de,#_kirbs16 + 0 + 56
                            504 ; genAssign (pointer)
   0153 3E 7C               505 	ld	a,#0x7C
   0155 12                  506 	ld	(de),a
                            507 ; genPlus
                            508 ; genPlusIncr
   0156 11 39 00            509 	ld	de,#_kirbs16 + 0 + 57
                            510 ; genAssign (pointer)
   0159 3E 0C               511 	ld	a,#0x0C
   015B 12                  512 	ld	(de),a
                            513 ; genPlus
                            514 ; genPlusIncr
   015C 11 3A 00            515 	ld	de,#_kirbs16 + 0 + 58
                            516 ; genAssign (pointer)
   015F 3E FE               517 	ld	a,#0xFE
   0161 12                  518 	ld	(de),a
                            519 ; genPlus
                            520 ; genPlusIncr
   0162 11 3B 00            521 	ld	de,#_kirbs16 + 0 + 59
                            522 ; genAssign (pointer)
   0165 3E FA               523 	ld	a,#0xFA
   0167 12                  524 	ld	(de),a
                            525 ; genPlus
                            526 ; genPlusIncr
   0168 11 3C 00            527 	ld	de,#_kirbs16 + 0 + 60
                            528 ; genAssign (pointer)
   016B 3E 1F               529 	ld	a,#0x1F
   016D 12                  530 	ld	(de),a
                            531 ; genPlus
                            532 ; genPlusIncr
   016E 11 3D 00            533 	ld	de,#_kirbs16 + 0 + 61
                            534 ; genAssign (pointer)
   0171 3E 11               535 	ld	a,#0x11
   0173 12                  536 	ld	(de),a
                            537 ; genPlus
                            538 ; genPlusIncr
   0174 11 3E 00            539 	ld	de,#_kirbs16 + 0 + 62
                            540 ; genAssign (pointer)
   0177 3E 1E               541 	ld	a,#0x1E
   0179 12                  542 	ld	(de),a
                            543 ; genPlus
                            544 ; genPlusIncr
   017A 11 3F 00            545 	ld	de,#_kirbs16 + 0 + 63
                            546 ; genAssign (pointer)
   017D 3E 1E               547 	ld	a,#0x1E
   017F 12                  548 	ld	(de),a
                            549 ; genPlus
                            550 ; genPlusIncr
   0180 11 40 00            551 	ld	de,#_kirbs16 + 0 + 64
                            552 ; genAssign (pointer)
   0183 3E 03               553 	ld	a,#0x03
   0185 12                  554 	ld	(de),a
                            555 ; genPlus
                            556 ; genPlusIncr
   0186 11 41 00            557 	ld	de,#_kirbs16 + 0 + 65
                            558 ; genAssign (pointer)
   0189 3E 00               559 	ld	a,#0x00
   018B 12                  560 	ld	(de),a
                            561 ; genPlus
                            562 ; genPlusIncr
   018C 11 42 00            563 	ld	de,#_kirbs16 + 0 + 66
                            564 ; genAssign (pointer)
   018F 3E 07               565 	ld	a,#0x07
   0191 12                  566 	ld	(de),a
                            567 ; genPlus
                            568 ; genPlusIncr
   0192 11 43 00            569 	ld	de,#_kirbs16 + 0 + 67
                            570 ; genAssign (pointer)
   0195 3E 00               571 	ld	a,#0x00
   0197 12                  572 	ld	(de),a
                            573 ; genPlus
                            574 ; genPlusIncr
   0198 11 44 00            575 	ld	de,#_kirbs16 + 0 + 68
                            576 ; genAssign (pointer)
   019B 3E 3F               577 	ld	a,#0x3F
   019D 12                  578 	ld	(de),a
                            579 ; genPlus
                            580 ; genPlusIncr
   019E 11 45 00            581 	ld	de,#_kirbs16 + 0 + 69
                            582 ; genAssign (pointer)
   01A1 3E 31               583 	ld	a,#0x31
   01A3 12                  584 	ld	(de),a
                            585 ; genPlus
                            586 ; genPlusIncr
   01A4 11 46 00            587 	ld	de,#_kirbs16 + 0 + 70
                            588 ; genAssign (pointer)
   01A7 3E 4C               589 	ld	a,#0x4C
   01A9 12                  590 	ld	(de),a
                            591 ; genPlus
                            592 ; genPlusIncr
   01AA 11 47 00            593 	ld	de,#_kirbs16 + 0 + 71
                            594 ; genAssign (pointer)
   01AD 3E 73               595 	ld	a,#0x73
   01AF 12                  596 	ld	(de),a
                            597 ; genPlus
                            598 ; genPlusIncr
   01B0 11 48 00            599 	ld	de,#_kirbs16 + 0 + 72
                            600 ; genAssign (pointer)
   01B3 3E 48               601 	ld	a,#0x48
   01B5 12                  602 	ld	(de),a
                            603 ; genPlus
                            604 ; genPlusIncr
   01B6 11 49 00            605 	ld	de,#_kirbs16 + 0 + 73
                            606 ; genAssign (pointer)
   01B9 3E 48               607 	ld	a,#0x48
   01BB 12                  608 	ld	(de),a
                            609 ; genPlus
                            610 ; genPlusIncr
   01BC 11 4A 00            611 	ld	de,#_kirbs16 + 0 + 74
                            612 ; genAssign (pointer)
   01BF 3E 88               613 	ld	a,#0x88
   01C1 12                  614 	ld	(de),a
                            615 ; genPlus
                            616 ; genPlusIncr
   01C2 11 4B 00            617 	ld	de,#_kirbs16 + 0 + 75
                            618 ; genAssign (pointer)
   01C5 3E 9C               619 	ld	a,#0x9C
   01C7 12                  620 	ld	(de),a
                            621 ; genPlus
                            622 ; genPlusIncr
   01C8 11 4C 00            623 	ld	de,#_kirbs16 + 0 + 76
                            624 ; genAssign (pointer)
   01CB 3E 88               625 	ld	a,#0x88
   01CD 12                  626 	ld	(de),a
                            627 ; genPlus
                            628 ; genPlusIncr
   01CE 11 4D 00            629 	ld	de,#_kirbs16 + 0 + 77
                            630 ; genAssign (pointer)
   01D1 3E 88               631 	ld	a,#0x88
   01D3 12                  632 	ld	(de),a
                            633 ; genPlus
                            634 ; genPlusIncr
   01D4 11 4E 00            635 	ld	de,#_kirbs16 + 0 + 78
                            636 ; genAssign (pointer)
   01D7 3E 40               637 	ld	a,#0x40
   01D9 12                  638 	ld	(de),a
                            639 ; genPlus
                            640 ; genPlusIncr
   01DA 11 4F 00            641 	ld	de,#_kirbs16 + 0 + 79
                            642 ; genAssign (pointer)
   01DD 3E 40               643 	ld	a,#0x40
   01DF 12                  644 	ld	(de),a
                            645 ; genPlus
                            646 ; genPlusIncr
   01E0 11 50 00            647 	ld	de,#_kirbs16 + 0 + 80
                            648 ; genAssign (pointer)
   01E3 3E 10               649 	ld	a,#0x10
   01E5 12                  650 	ld	(de),a
                            651 ; genPlus
                            652 ; genPlusIncr
   01E6 11 51 00            653 	ld	de,#_kirbs16 + 0 + 81
                            654 ; genAssign (pointer)
   01E9 3E E0               655 	ld	a,#0xE0
   01EB 12                  656 	ld	(de),a
                            657 ; genPlus
                            658 ; genPlusIncr
   01EC 11 52 00            659 	ld	de,#_kirbs16 + 0 + 82
                            660 ; genAssign (pointer)
   01EF 3E 08               661 	ld	a,#0x08
   01F1 12                  662 	ld	(de),a
                            663 ; genPlus
                            664 ; genPlusIncr
   01F2 11 53 00            665 	ld	de,#_kirbs16 + 0 + 83
                            666 ; genAssign (pointer)
   01F5 3E F0               667 	ld	a,#0xF0
   01F7 12                  668 	ld	(de),a
                            669 ; genPlus
                            670 ; genPlusIncr
   01F8 11 54 00            671 	ld	de,#_kirbs16 + 0 + 84
                            672 ; genAssign (pointer)
   01FB 3E FC               673 	ld	a,#0xFC
   01FD 12                  674 	ld	(de),a
                            675 ; genPlus
                            676 ; genPlusIncr
   01FE 11 55 00            677 	ld	de,#_kirbs16 + 0 + 85
                            678 ; genAssign (pointer)
   0201 3E FC               679 	ld	a,#0xFC
   0203 12                  680 	ld	(de),a
                            681 ; genPlus
                            682 ; genPlusIncr
   0204 11 56 00            683 	ld	de,#_kirbs16 + 0 + 86
                            684 ; genAssign (pointer)
   0207 3E 02               685 	ld	a,#0x02
   0209 12                  686 	ld	(de),a
                            687 ; genPlus
                            688 ; genPlusIncr
   020A 11 57 00            689 	ld	de,#_kirbs16 + 0 + 87
                            690 ; genAssign (pointer)
   020D 3E FE               691 	ld	a,#0xFE
   020F 12                  692 	ld	(de),a
                            693 ; genPlus
                            694 ; genPlusIncr
   0210 11 58 00            695 	ld	de,#_kirbs16 + 0 + 88
                            696 ; genAssign (pointer)
   0213 3E 12               697 	ld	a,#0x12
   0215 12                  698 	ld	(de),a
                            699 ; genPlus
                            700 ; genPlusIncr
   0216 11 59 00            701 	ld	de,#_kirbs16 + 0 + 89
                            702 ; genAssign (pointer)
   0219 3E 12               703 	ld	a,#0x12
   021B 12                  704 	ld	(de),a
                            705 ; genPlus
                            706 ; genPlusIncr
   021C 11 5A 00            707 	ld	de,#_kirbs16 + 0 + 90
                            708 ; genAssign (pointer)
   021F 3E 11               709 	ld	a,#0x11
   0221 12                  710 	ld	(de),a
                            711 ; genPlus
                            712 ; genPlusIncr
   0222 11 5B 00            713 	ld	de,#_kirbs16 + 0 + 91
                            714 ; genAssign (pointer)
   0225 3E 39               715 	ld	a,#0x39
   0227 12                  716 	ld	(de),a
                            717 ; genPlus
                            718 ; genPlusIncr
   0228 11 5C 00            719 	ld	de,#_kirbs16 + 0 + 92
                            720 ; genAssign (pointer)
   022B 3E 11               721 	ld	a,#0x11
   022D 12                  722 	ld	(de),a
                            723 ; genPlus
                            724 ; genPlusIncr
   022E 11 5D 00            725 	ld	de,#_kirbs16 + 0 + 93
                            726 ; genAssign (pointer)
   0231 3E 11               727 	ld	a,#0x11
   0233 12                  728 	ld	(de),a
                            729 ; genPlus
                            730 ; genPlusIncr
   0234 11 5E 00            731 	ld	de,#_kirbs16 + 0 + 94
                            732 ; genAssign (pointer)
   0237 3E 02               733 	ld	a,#0x02
   0239 12                  734 	ld	(de),a
                            735 ; genPlus
                            736 ; genPlusIncr
   023A 11 5F 00            737 	ld	de,#_kirbs16 + 0 + 95
                            738 ; genAssign (pointer)
   023D 3E 02               739 	ld	a,#0x02
   023F 12                  740 	ld	(de),a
                            741 ; genPlus
                            742 ; genPlusIncr
   0240 11 60 00            743 	ld	de,#_kirbs16 + 0 + 96
                            744 ; genAssign (pointer)
   0243 3E 40               745 	ld	a,#0x40
   0245 12                  746 	ld	(de),a
                            747 ; genPlus
                            748 ; genPlusIncr
   0246 11 61 00            749 	ld	de,#_kirbs16 + 0 + 97
                            750 ; genAssign (pointer)
   0249 3E 5C               751 	ld	a,#0x5C
   024B 12                  752 	ld	(de),a
                            753 ; genPlus
                            754 ; genPlusIncr
   024C 11 62 00            755 	ld	de,#_kirbs16 + 0 + 98
                            756 ; genAssign (pointer)
   024F 3E 28               757 	ld	a,#0x28
   0251 12                  758 	ld	(de),a
                            759 ; genPlus
                            760 ; genPlusIncr
   0252 11 63 00            761 	ld	de,#_kirbs16 + 0 + 99
                            762 ; genAssign (pointer)
   0255 3E 3F               763 	ld	a,#0x3F
   0257 12                  764 	ld	(de),a
                            765 ; genPlus
                            766 ; genPlusIncr
   0258 11 64 00            767 	ld	de,#_kirbs16 + 0 + 100
                            768 ; genAssign (pointer)
   025B 3E 17               769 	ld	a,#0x17
   025D 12                  770 	ld	(de),a
                            771 ; genPlus
                            772 ; genPlusIncr
   025E 11 65 00            773 	ld	de,#_kirbs16 + 0 + 101
                            774 ; genAssign (pointer)
   0261 3E 1F               775 	ld	a,#0x1F
   0263 12                  776 	ld	(de),a
                            777 ; genPlus
                            778 ; genPlusIncr
   0264 11 66 00            779 	ld	de,#_kirbs16 + 0 + 102
                            780 ; genAssign (pointer)
   0267 3E 08               781 	ld	a,#0x08
   0269 12                  782 	ld	(de),a
                            783 ; genPlus
                            784 ; genPlusIncr
   026A 11 67 00            785 	ld	de,#_kirbs16 + 0 + 103
                            786 ; genAssign (pointer)
   026D 3E 0F               787 	ld	a,#0x0F
   026F 12                  788 	ld	(de),a
                            789 ; genPlus
                            790 ; genPlusIncr
   0270 11 68 00            791 	ld	de,#_kirbs16 + 0 + 104
                            792 ; genAssign (pointer)
   0273 3E 06               793 	ld	a,#0x06
   0275 12                  794 	ld	(de),a
                            795 ; genPlus
                            796 ; genPlusIncr
   0276 11 69 00            797 	ld	de,#_kirbs16 + 0 + 105
                            798 ; genAssign (pointer)
   0279 3E 06               799 	ld	a,#0x06
   027B 12                  800 	ld	(de),a
                            801 ; genPlus
                            802 ; genPlusIncr
   027C 11 6A 00            803 	ld	de,#_kirbs16 + 0 + 106
                            804 ; genAssign (pointer)
   027F 3E 1F               805 	ld	a,#0x1F
   0281 12                  806 	ld	(de),a
                            807 ; genPlus
                            808 ; genPlusIncr
   0282 11 6B 00            809 	ld	de,#_kirbs16 + 0 + 107
                            810 ; genAssign (pointer)
   0285 3E 1F               811 	ld	a,#0x1F
   0287 12                  812 	ld	(de),a
                            813 ; genPlus
                            814 ; genPlusIncr
   0288 11 6C 00            815 	ld	de,#_kirbs16 + 0 + 108
                            816 ; genAssign (pointer)
   028B 3E 27               817 	ld	a,#0x27
   028D 12                  818 	ld	(de),a
                            819 ; genPlus
                            820 ; genPlusIncr
   028E 11 6D 00            821 	ld	de,#_kirbs16 + 0 + 109
                            822 ; genAssign (pointer)
   0291 3E 39               823 	ld	a,#0x39
   0293 12                  824 	ld	(de),a
                            825 ; genPlus
                            826 ; genPlusIncr
   0294 11 6E 00            827 	ld	de,#_kirbs16 + 0 + 110
                            828 ; genAssign (pointer)
   0297 3E 1F               829 	ld	a,#0x1F
   0299 12                  830 	ld	(de),a
                            831 ; genPlus
                            832 ; genPlusIncr
   029A 11 6F 00            833 	ld	de,#_kirbs16 + 0 + 111
                            834 ; genAssign (pointer)
   029D 3E 1F               835 	ld	a,#0x1F
   029F 12                  836 	ld	(de),a
                            837 ; genPlus
                            838 ; genPlusIncr
   02A0 11 70 00            839 	ld	de,#_kirbs16 + 0 + 112
                            840 ; genAssign (pointer)
   02A3 3E 02               841 	ld	a,#0x02
   02A5 12                  842 	ld	(de),a
                            843 ; genPlus
                            844 ; genPlusIncr
   02A6 11 71 00            845 	ld	de,#_kirbs16 + 0 + 113
                            846 ; genAssign (pointer)
   02A9 3E 3A               847 	ld	a,#0x3A
   02AB 12                  848 	ld	(de),a
                            849 ; genPlus
                            850 ; genPlusIncr
   02AC 11 72 00            851 	ld	de,#_kirbs16 + 0 + 114
                            852 ; genAssign (pointer)
   02AF 3E 14               853 	ld	a,#0x14
   02B1 12                  854 	ld	(de),a
                            855 ; genPlus
                            856 ; genPlusIncr
   02B2 11 73 00            857 	ld	de,#_kirbs16 + 0 + 115
                            858 ; genAssign (pointer)
   02B5 3E FC               859 	ld	a,#0xFC
   02B7 12                  860 	ld	(de),a
                            861 ; genPlus
                            862 ; genPlusIncr
   02B8 11 74 00            863 	ld	de,#_kirbs16 + 0 + 116
                            864 ; genAssign (pointer)
   02BB 3E E8               865 	ld	a,#0xE8
   02BD 12                  866 	ld	(de),a
                            867 ; genPlus
                            868 ; genPlusIncr
   02BE 11 75 00            869 	ld	de,#_kirbs16 + 0 + 117
                            870 ; genAssign (pointer)
   02C1 3E F8               871 	ld	a,#0xF8
   02C3 12                  872 	ld	(de),a
                            873 ; genPlus
                            874 ; genPlusIncr
   02C4 11 76 00            875 	ld	de,#_kirbs16 + 0 + 118
                            876 ; genAssign (pointer)
   02C7 3E 10               877 	ld	a,#0x10
   02C9 12                  878 	ld	(de),a
                            879 ; genPlus
                            880 ; genPlusIncr
   02CA 11 77 00            881 	ld	de,#_kirbs16 + 0 + 119
                            882 ; genAssign (pointer)
   02CD 3E F0               883 	ld	a,#0xF0
   02CF 12                  884 	ld	(de),a
                            885 ; genPlus
                            886 ; genPlusIncr
   02D0 11 78 00            887 	ld	de,#_kirbs16 + 0 + 120
                            888 ; genAssign (pointer)
   02D3 3E 60               889 	ld	a,#0x60
   02D5 12                  890 	ld	(de),a
                            891 ; genPlus
                            892 ; genPlusIncr
   02D6 11 79 00            893 	ld	de,#_kirbs16 + 0 + 121
                            894 ; genAssign (pointer)
   02D9 3E 60               895 	ld	a,#0x60
   02DB 12                  896 	ld	(de),a
                            897 ; genPlus
                            898 ; genPlusIncr
   02DC 11 7A 00            899 	ld	de,#_kirbs16 + 0 + 122
                            900 ; genAssign (pointer)
   02DF 3E F8               901 	ld	a,#0xF8
   02E1 12                  902 	ld	(de),a
                            903 ; genPlus
                            904 ; genPlusIncr
   02E2 11 7B 00            905 	ld	de,#_kirbs16 + 0 + 123
                            906 ; genAssign (pointer)
   02E5 3E F8               907 	ld	a,#0xF8
   02E7 12                  908 	ld	(de),a
                            909 ; genPlus
                            910 ; genPlusIncr
   02E8 11 7C 00            911 	ld	de,#_kirbs16 + 0 + 124
                            912 ; genAssign (pointer)
   02EB 3E E4               913 	ld	a,#0xE4
   02ED 12                  914 	ld	(de),a
                            915 ; genPlus
                            916 ; genPlusIncr
   02EE 11 7D 00            917 	ld	de,#_kirbs16 + 0 + 125
                            918 ; genAssign (pointer)
   02F1 3E 9C               919 	ld	a,#0x9C
   02F3 12                  920 	ld	(de),a
                            921 ; genPlus
                            922 ; genPlusIncr
   02F4 11 7E 00            923 	ld	de,#_kirbs16 + 0 + 126
                            924 ; genAssign (pointer)
   02F7 3E F8               925 	ld	a,#0xF8
   02F9 12                  926 	ld	(de),a
                            927 ; genPlus
                            928 ; genPlusIncr
   02FA 11 7F 00            929 	ld	de,#_kirbs16 + 0 + 127
                            930 ; genAssign (pointer)
   02FD 3E F8               931 	ld	a,#0xF8
   02FF 12                  932 	ld	(de),a
                            933 ; genPlus
                            934 ; genPlusIncr
   0300 11 80 00            935 	ld	de,#_kirbs16 + 0 + 128
                            936 ; genAssign (pointer)
   0303 3E 1E               937 	ld	a,#0x1E
   0305 12                  938 	ld	(de),a
                            939 ; genPlus
                            940 ; genPlusIncr
   0306 11 81 00            941 	ld	de,#_kirbs16 + 0 + 129
                            942 ; genAssign (pointer)
   0309 3E 1E               943 	ld	a,#0x1E
   030B 12                  944 	ld	(de),a
                            945 ; genPlus
                            946 ; genPlusIncr
   030C 11 82 00            947 	ld	de,#_kirbs16 + 0 + 130
                            948 ; genAssign (pointer)
   030F 3E 13               949 	ld	a,#0x13
   0311 12                  950 	ld	(de),a
                            951 ; genPlus
                            952 ; genPlusIncr
   0312 11 83 00            953 	ld	de,#_kirbs16 + 0 + 131
                            954 ; genAssign (pointer)
   0315 3E 11               955 	ld	a,#0x11
   0317 12                  956 	ld	(de),a
                            957 ; genPlus
                            958 ; genPlusIncr
   0318 11 84 00            959 	ld	de,#_kirbs16 + 0 + 132
                            960 ; genAssign (pointer)
   031B 3E 0D               961 	ld	a,#0x0D
   031D 12                  962 	ld	(de),a
                            963 ; genPlus
                            964 ; genPlusIncr
   031E 11 85 00            965 	ld	de,#_kirbs16 + 0 + 133
                            966 ; genAssign (pointer)
   0321 3E 0A               967 	ld	a,#0x0A
   0323 12                  968 	ld	(de),a
                            969 ; genPlus
                            970 ; genPlusIncr
   0324 11 86 00            971 	ld	de,#_kirbs16 + 0 + 134
                            972 ; genAssign (pointer)
   0327 3E 06               973 	ld	a,#0x06
   0329 12                  974 	ld	(de),a
                            975 ; genPlus
                            976 ; genPlusIncr
   032A 11 87 00            977 	ld	de,#_kirbs16 + 0 + 135
                            978 ; genAssign (pointer)
   032D 3E 05               979 	ld	a,#0x05
   032F 12                  980 	ld	(de),a
                            981 ; genPlus
                            982 ; genPlusIncr
   0330 11 88 00            983 	ld	de,#_kirbs16 + 0 + 136
                            984 ; genAssign (pointer)
   0333 3E 03               985 	ld	a,#0x03
   0335 12                  986 	ld	(de),a
                            987 ; genPlus
                            988 ; genPlusIncr
   0336 11 89 00            989 	ld	de,#_kirbs16 + 0 + 137
                            990 ; genAssign (pointer)
   0339 3E 02               991 	ld	a,#0x02
   033B 12                  992 	ld	(de),a
                            993 ; genPlus
                            994 ; genPlusIncr
   033C 11 8A 00            995 	ld	de,#_kirbs16 + 0 + 138
                            996 ; genAssign (pointer)
   033F 3E 02               997 	ld	a,#0x02
   0341 12                  998 	ld	(de),a
                            999 ; genPlus
                           1000 ; genPlusIncr
   0342 11 8B 00           1001 	ld	de,#_kirbs16 + 0 + 139
                           1002 ; genAssign (pointer)
   0345 3E 03              1003 	ld	a,#0x03
   0347 12                 1004 	ld	(de),a
                           1005 ; genPlus
                           1006 ; genPlusIncr
   0348 11 8C 00           1007 	ld	de,#_kirbs16 + 0 + 140
                           1008 ; genAssign (pointer)
   034B 3E 02              1009 	ld	a,#0x02
   034D 12                 1010 	ld	(de),a
                           1011 ; genPlus
                           1012 ; genPlusIncr
   034E 11 8D 00           1013 	ld	de,#_kirbs16 + 0 + 141
                           1014 ; genAssign (pointer)
   0351 3E 03              1015 	ld	a,#0x03
   0353 12                 1016 	ld	(de),a
                           1017 ; genPlus
                           1018 ; genPlusIncr
   0354 11 8E 00           1019 	ld	de,#_kirbs16 + 0 + 142
                           1020 ; genAssign (pointer)
   0357 3E 02              1021 	ld	a,#0x02
   0359 12                 1022 	ld	(de),a
                           1023 ; genPlus
                           1024 ; genPlusIncr
   035A 11 8F 00           1025 	ld	de,#_kirbs16 + 0 + 143
                           1026 ; genAssign (pointer)
   035D 3E 03              1027 	ld	a,#0x03
   035F 12                 1028 	ld	(de),a
                           1029 ; genPlus
                           1030 ; genPlusIncr
   0360 11 90 00           1031 	ld	de,#_kirbs16 + 0 + 144
                           1032 ; genAssign (pointer)
   0363 3E 78              1033 	ld	a,#0x78
   0365 12                 1034 	ld	(de),a
                           1035 ; genPlus
                           1036 ; genPlusIncr
   0366 11 91 00           1037 	ld	de,#_kirbs16 + 0 + 145
                           1038 ; genAssign (pointer)
   0369 3E 78              1039 	ld	a,#0x78
   036B 12                 1040 	ld	(de),a
                           1041 ; genPlus
                           1042 ; genPlusIncr
   036C 11 92 00           1043 	ld	de,#_kirbs16 + 0 + 146
                           1044 ; genAssign (pointer)
   036F 3E C8              1045 	ld	a,#0xC8
   0371 12                 1046 	ld	(de),a
                           1047 ; genPlus
                           1048 ; genPlusIncr
   0372 11 93 00           1049 	ld	de,#_kirbs16 + 0 + 147
                           1050 ; genAssign (pointer)
   0375 3E 88              1051 	ld	a,#0x88
   0377 12                 1052 	ld	(de),a
                           1053 ; genPlus
                           1054 ; genPlusIncr
   0378 11 94 00           1055 	ld	de,#_kirbs16 + 0 + 148
                           1056 ; genAssign (pointer)
   037B 3E B0              1057 	ld	a,#0xB0
   037D 12                 1058 	ld	(de),a
                           1059 ; genPlus
                           1060 ; genPlusIncr
   037E 11 95 00           1061 	ld	de,#_kirbs16 + 0 + 149
                           1062 ; genAssign (pointer)
   0381 3E 50              1063 	ld	a,#0x50
   0383 12                 1064 	ld	(de),a
                           1065 ; genPlus
                           1066 ; genPlusIncr
   0384 11 96 00           1067 	ld	de,#_kirbs16 + 0 + 150
                           1068 ; genAssign (pointer)
   0387 3E 60              1069 	ld	a,#0x60
   0389 12                 1070 	ld	(de),a
                           1071 ; genPlus
                           1072 ; genPlusIncr
   038A 11 97 00           1073 	ld	de,#_kirbs16 + 0 + 151
                           1074 ; genAssign (pointer)
   038D 3E A0              1075 	ld	a,#0xA0
   038F 12                 1076 	ld	(de),a
                           1077 ; genPlus
                           1078 ; genPlusIncr
   0390 11 98 00           1079 	ld	de,#_kirbs16 + 0 + 152
                           1080 ; genAssign (pointer)
   0393 3E C0              1081 	ld	a,#0xC0
   0395 12                 1082 	ld	(de),a
                           1083 ; genPlus
                           1084 ; genPlusIncr
   0396 11 99 00           1085 	ld	de,#_kirbs16 + 0 + 153
                           1086 ; genAssign (pointer)
   0399 3E 40              1087 	ld	a,#0x40
   039B 12                 1088 	ld	(de),a
                           1089 ; genPlus
                           1090 ; genPlusIncr
   039C 11 9A 00           1091 	ld	de,#_kirbs16 + 0 + 154
                           1092 ; genAssign (pointer)
   039F 3E 40              1093 	ld	a,#0x40
   03A1 12                 1094 	ld	(de),a
                           1095 ; genPlus
                           1096 ; genPlusIncr
   03A2 11 9B 00           1097 	ld	de,#_kirbs16 + 0 + 155
                           1098 ; genAssign (pointer)
   03A5 3E C0              1099 	ld	a,#0xC0
   03A7 12                 1100 	ld	(de),a
                           1101 ; genPlus
                           1102 ; genPlusIncr
   03A8 11 9C 00           1103 	ld	de,#_kirbs16 + 0 + 156
                           1104 ; genAssign (pointer)
   03AB 3E 40              1105 	ld	a,#0x40
   03AD 12                 1106 	ld	(de),a
                           1107 ; genPlus
                           1108 ; genPlusIncr
   03AE 11 9D 00           1109 	ld	de,#_kirbs16 + 0 + 157
                           1110 ; genAssign (pointer)
   03B1 3E C0              1111 	ld	a,#0xC0
   03B3 12                 1112 	ld	(de),a
                           1113 ; genPlus
                           1114 ; genPlusIncr
   03B4 11 9E 00           1115 	ld	de,#_kirbs16 + 0 + 158
                           1116 ; genAssign (pointer)
   03B7 3E 40              1117 	ld	a,#0x40
   03B9 12                 1118 	ld	(de),a
                           1119 ; genPlus
                           1120 ; genPlusIncr
   03BA 11 9F 00           1121 	ld	de,#_kirbs16 + 0 + 159
                           1122 ; genAssign (pointer)
   03BD 3E C0              1123 	ld	a,#0xC0
   03BF 12                 1124 	ld	(de),a
                           1125 ; genPlus
                           1126 ; genPlusIncr
   03C0 11 A0 00           1127 	ld	de,#_kirbs16 + 0 + 160
                           1128 ; genAssign (pointer)
   03C3 3E 02              1129 	ld	a,#0x02
   03C5 12                 1130 	ld	(de),a
                           1131 ; genPlus
                           1132 ; genPlusIncr
   03C6 11 A1 00           1133 	ld	de,#_kirbs16 + 0 + 161
                           1134 ; genAssign (pointer)
   03C9 3E 03              1135 	ld	a,#0x03
   03CB 12                 1136 	ld	(de),a
                           1137 ; genPlus
                           1138 ; genPlusIncr
   03CC 11 A2 00           1139 	ld	de,#_kirbs16 + 0 + 162
                           1140 ; genAssign (pointer)
   03CF 3E 02              1141 	ld	a,#0x02
   03D1 12                 1142 	ld	(de),a
                           1143 ; genPlus
                           1144 ; genPlusIncr
   03D2 11 A3 00           1145 	ld	de,#_kirbs16 + 0 + 163
                           1146 ; genAssign (pointer)
   03D5 3E 03              1147 	ld	a,#0x03
   03D7 12                 1148 	ld	(de),a
                           1149 ; genPlus
                           1150 ; genPlusIncr
   03D8 11 A4 00           1151 	ld	de,#_kirbs16 + 0 + 164
                           1152 ; genAssign (pointer)
   03DB 3E 02              1153 	ld	a,#0x02
   03DD 12                 1154 	ld	(de),a
                           1155 ; genPlus
                           1156 ; genPlusIncr
   03DE 11 A5 00           1157 	ld	de,#_kirbs16 + 0 + 165
                           1158 ; genAssign (pointer)
   03E1 3E 03              1159 	ld	a,#0x03
   03E3 12                 1160 	ld	(de),a
                           1161 ; genPlus
                           1162 ; genPlusIncr
   03E4 11 A6 00           1163 	ld	de,#_kirbs16 + 0 + 166
                           1164 ; genAssign (pointer)
   03E7 3E 01              1165 	ld	a,#0x01
   03E9 12                 1166 	ld	(de),a
                           1167 ; genPlus
                           1168 ; genPlusIncr
   03EA 11 A7 00           1169 	ld	de,#_kirbs16 + 0 + 167
                           1170 ; genAssign (pointer)
   03ED 3E 01              1171 	ld	a,#0x01
   03EF 12                 1172 	ld	(de),a
                           1173 ; genPlus
                           1174 ; genPlusIncr
   03F0 11 A8 00           1175 	ld	de,#_kirbs16 + 0 + 168
                           1176 ; genAssign (pointer)
   03F3 3E 00              1177 	ld	a,#0x00
   03F5 12                 1178 	ld	(de),a
                           1179 ; genPlus
                           1180 ; genPlusIncr
   03F6 11 A9 00           1181 	ld	de,#_kirbs16 + 0 + 169
                           1182 ; genAssign (pointer)
   03F9 3E 00              1183 	ld	a,#0x00
   03FB 12                 1184 	ld	(de),a
                           1185 ; genPlus
                           1186 ; genPlusIncr
   03FC 11 AA 00           1187 	ld	de,#_kirbs16 + 0 + 170
                           1188 ; genAssign (pointer)
   03FF 3E 00              1189 	ld	a,#0x00
   0401 12                 1190 	ld	(de),a
                           1191 ; genPlus
                           1192 ; genPlusIncr
   0402 11 AB 00           1193 	ld	de,#_kirbs16 + 0 + 171
                           1194 ; genAssign (pointer)
   0405 3E 00              1195 	ld	a,#0x00
   0407 12                 1196 	ld	(de),a
                           1197 ; genPlus
                           1198 ; genPlusIncr
   0408 11 AC 00           1199 	ld	de,#_kirbs16 + 0 + 172
                           1200 ; genAssign (pointer)
   040B 3E 00              1201 	ld	a,#0x00
   040D 12                 1202 	ld	(de),a
                           1203 ; genPlus
                           1204 ; genPlusIncr
   040E 11 AD 00           1205 	ld	de,#_kirbs16 + 0 + 173
                           1206 ; genAssign (pointer)
   0411 3E 00              1207 	ld	a,#0x00
   0413 12                 1208 	ld	(de),a
                           1209 ; genPlus
                           1210 ; genPlusIncr
   0414 11 AE 00           1211 	ld	de,#_kirbs16 + 0 + 174
                           1212 ; genAssign (pointer)
   0417 3E 00              1213 	ld	a,#0x00
   0419 12                 1214 	ld	(de),a
                           1215 ; genPlus
                           1216 ; genPlusIncr
   041A 11 AF 00           1217 	ld	de,#_kirbs16 + 0 + 175
                           1218 ; genAssign (pointer)
   041D 3E 00              1219 	ld	a,#0x00
   041F 12                 1220 	ld	(de),a
                           1221 ; genPlus
                           1222 ; genPlusIncr
   0420 11 B0 00           1223 	ld	de,#_kirbs16 + 0 + 176
                           1224 ; genAssign (pointer)
   0423 3E 40              1225 	ld	a,#0x40
   0425 12                 1226 	ld	(de),a
                           1227 ; genPlus
                           1228 ; genPlusIncr
   0426 11 B1 00           1229 	ld	de,#_kirbs16 + 0 + 177
                           1230 ; genAssign (pointer)
   0429 3E C0              1231 	ld	a,#0xC0
   042B 12                 1232 	ld	(de),a
                           1233 ; genPlus
                           1234 ; genPlusIncr
   042C 11 B2 00           1235 	ld	de,#_kirbs16 + 0 + 178
                           1236 ; genAssign (pointer)
   042F 3E 40              1237 	ld	a,#0x40
   0431 12                 1238 	ld	(de),a
                           1239 ; genPlus
                           1240 ; genPlusIncr
   0432 11 B3 00           1241 	ld	de,#_kirbs16 + 0 + 179
                           1242 ; genAssign (pointer)
   0435 3E C0              1243 	ld	a,#0xC0
   0437 12                 1244 	ld	(de),a
                           1245 ; genPlus
                           1246 ; genPlusIncr
   0438 11 B4 00           1247 	ld	de,#_kirbs16 + 0 + 180
                           1248 ; genAssign (pointer)
   043B 3E 40              1249 	ld	a,#0x40
   043D 12                 1250 	ld	(de),a
                           1251 ; genPlus
                           1252 ; genPlusIncr
   043E 11 B5 00           1253 	ld	de,#_kirbs16 + 0 + 181
                           1254 ; genAssign (pointer)
   0441 3E C0              1255 	ld	a,#0xC0
   0443 12                 1256 	ld	(de),a
                           1257 ; genPlus
                           1258 ; genPlusIncr
   0444 11 B6 00           1259 	ld	de,#_kirbs16 + 0 + 182
                           1260 ; genAssign (pointer)
   0447 3E 80              1261 	ld	a,#0x80
   0449 12                 1262 	ld	(de),a
                           1263 ; genPlus
                           1264 ; genPlusIncr
   044A 11 B7 00           1265 	ld	de,#_kirbs16 + 0 + 183
                           1266 ; genAssign (pointer)
   044D 3E 80              1267 	ld	a,#0x80
   044F 12                 1268 	ld	(de),a
                           1269 ; genPlus
                           1270 ; genPlusIncr
   0450 11 B8 00           1271 	ld	de,#_kirbs16 + 0 + 184
                           1272 ; genAssign (pointer)
   0453 3E 00              1273 	ld	a,#0x00
   0455 12                 1274 	ld	(de),a
                           1275 ; genPlus
                           1276 ; genPlusIncr
   0456 11 B9 00           1277 	ld	de,#_kirbs16 + 0 + 185
                           1278 ; genAssign (pointer)
   0459 3E 00              1279 	ld	a,#0x00
   045B 12                 1280 	ld	(de),a
                           1281 ; genPlus
                           1282 ; genPlusIncr
   045C 11 BA 00           1283 	ld	de,#_kirbs16 + 0 + 186
                           1284 ; genAssign (pointer)
   045F 3E 00              1285 	ld	a,#0x00
   0461 12                 1286 	ld	(de),a
                           1287 ; genPlus
                           1288 ; genPlusIncr
   0462 11 BB 00           1289 	ld	de,#_kirbs16 + 0 + 187
                           1290 ; genAssign (pointer)
   0465 3E 00              1291 	ld	a,#0x00
   0467 12                 1292 	ld	(de),a
                           1293 ; genPlus
                           1294 ; genPlusIncr
   0468 11 BC 00           1295 	ld	de,#_kirbs16 + 0 + 188
                           1296 ; genAssign (pointer)
   046B 3E 00              1297 	ld	a,#0x00
   046D 12                 1298 	ld	(de),a
                           1299 ; genPlus
                           1300 ; genPlusIncr
   046E 11 BD 00           1301 	ld	de,#_kirbs16 + 0 + 189
                           1302 ; genAssign (pointer)
   0471 3E 00              1303 	ld	a,#0x00
   0473 12                 1304 	ld	(de),a
                           1305 ; genPlus
                           1306 ; genPlusIncr
   0474 11 BE 00           1307 	ld	de,#_kirbs16 + 0 + 190
                           1308 ; genAssign (pointer)
   0477 3E 00              1309 	ld	a,#0x00
   0479 12                 1310 	ld	(de),a
                           1311 ; genPlus
                           1312 ; genPlusIncr
   047A 11 BF 00           1313 	ld	de,#_kirbs16 + 0 + 191
                           1314 ; genAssign (pointer)
   047D 3E 00              1315 	ld	a,#0x00
   047F 12                 1316 	ld	(de),a
                           1317 ; genPlus
                           1318 ; genPlusIncr
   0480 11 C0 00           1319 	ld	de,#_kirbs16 + 0 + 192
                           1320 ; genAssign (pointer)
   0483 3E 00              1321 	ld	a,#0x00
   0485 12                 1322 	ld	(de),a
                           1323 ; genPlus
                           1324 ; genPlusIncr
   0486 11 C1 00           1325 	ld	de,#_kirbs16 + 0 + 193
                           1326 ; genAssign (pointer)
   0489 3E 00              1327 	ld	a,#0x00
   048B 12                 1328 	ld	(de),a
                           1329 ; genPlus
                           1330 ; genPlusIncr
   048C 11 C2 00           1331 	ld	de,#_kirbs16 + 0 + 194
                           1332 ; genAssign (pointer)
   048F 3E 00              1333 	ld	a,#0x00
   0491 12                 1334 	ld	(de),a
                           1335 ; genPlus
                           1336 ; genPlusIncr
   0492 11 C3 00           1337 	ld	de,#_kirbs16 + 0 + 195
                           1338 ; genAssign (pointer)
   0495 3E 07              1339 	ld	a,#0x07
   0497 12                 1340 	ld	(de),a
                           1341 ; genPlus
                           1342 ; genPlusIncr
   0498 11 C4 00           1343 	ld	de,#_kirbs16 + 0 + 196
                           1344 ; genAssign (pointer)
   049B 3E 04              1345 	ld	a,#0x04
   049D 12                 1346 	ld	(de),a
                           1347 ; genPlus
                           1348 ; genPlusIncr
   049E 11 C5 00           1349 	ld	de,#_kirbs16 + 0 + 197
                           1350 ; genAssign (pointer)
   04A1 3E 0F              1351 	ld	a,#0x0F
   04A3 12                 1352 	ld	(de),a
                           1353 ; genPlus
                           1354 ; genPlusIncr
   04A4 11 C6 00           1355 	ld	de,#_kirbs16 + 0 + 198
                           1356 ; genAssign (pointer)
   04A7 3E 04              1357 	ld	a,#0x04
   04A9 12                 1358 	ld	(de),a
                           1359 ; genPlus
                           1360 ; genPlusIncr
   04AA 11 C7 00           1361 	ld	de,#_kirbs16 + 0 + 199
                           1362 ; genAssign (pointer)
   04AD 3E 1F              1363 	ld	a,#0x1F
   04AF 12                 1364 	ld	(de),a
                           1365 ; genPlus
                           1366 ; genPlusIncr
   04B0 11 C8 00           1367 	ld	de,#_kirbs16 + 0 + 200
                           1368 ; genAssign (pointer)
   04B3 3E 63              1369 	ld	a,#0x63
   04B5 12                 1370 	ld	(de),a
                           1371 ; genPlus
                           1372 ; genPlusIncr
   04B6 11 C9 00           1373 	ld	de,#_kirbs16 + 0 + 201
                           1374 ; genAssign (pointer)
   04B9 3E 1C              1375 	ld	a,#0x1C
   04BB 12                 1376 	ld	(de),a
                           1377 ; genPlus
                           1378 ; genPlusIncr
   04BC 11 CA 00           1379 	ld	de,#_kirbs16 + 0 + 202
                           1380 ; genAssign (pointer)
   04BF 3E 7F              1381 	ld	a,#0x7F
   04C1 12                 1382 	ld	(de),a
                           1383 ; genPlus
                           1384 ; genPlusIncr
   04C2 11 CB 00           1385 	ld	de,#_kirbs16 + 0 + 203
                           1386 ; genAssign (pointer)
   04C5 3E 40              1387 	ld	a,#0x40
   04C7 12                 1388 	ld	(de),a
                           1389 ; genPlus
                           1390 ; genPlusIncr
   04C8 11 CC 00           1391 	ld	de,#_kirbs16 + 0 + 204
                           1392 ; genAssign (pointer)
   04CB 3E 6E              1393 	ld	a,#0x6E
   04CD 12                 1394 	ld	(de),a
                           1395 ; genPlus
                           1396 ; genPlusIncr
   04CE 11 CD 00           1397 	ld	de,#_kirbs16 + 0 + 205
                           1398 ; genAssign (pointer)
   04D1 3E 01              1399 	ld	a,#0x01
   04D3 12                 1400 	ld	(de),a
                           1401 ; genPlus
                           1402 ; genPlusIncr
   04D4 11 CE 00           1403 	ld	de,#_kirbs16 + 0 + 206
                           1404 ; genAssign (pointer)
   04D7 3E 3C              1405 	ld	a,#0x3C
   04D9 12                 1406 	ld	(de),a
                           1407 ; genPlus
                           1408 ; genPlusIncr
   04DA 11 CF 00           1409 	ld	de,#_kirbs16 + 0 + 207
                           1410 ; genAssign (pointer)
   04DD 3E 03              1411 	ld	a,#0x03
   04DF 12                 1412 	ld	(de),a
                           1413 ; genPlus
                           1414 ; genPlusIncr
   04E0 11 D0 00           1415 	ld	de,#_kirbs16 + 0 + 208
                           1416 ; genAssign (pointer)
   04E3 3E 70              1417 	ld	a,#0x70
   04E5 12                 1418 	ld	(de),a
                           1419 ; genPlus
                           1420 ; genPlusIncr
   04E6 11 D1 00           1421 	ld	de,#_kirbs16 + 0 + 209
                           1422 ; genAssign (pointer)
   04E9 3E 00              1423 	ld	a,#0x00
   04EB 12                 1424 	ld	(de),a
                           1425 ; genPlus
                           1426 ; genPlusIncr
   04EC 11 D2 00           1427 	ld	de,#_kirbs16 + 0 + 210
                           1428 ; genAssign (pointer)
   04EF 3E E8              1429 	ld	a,#0xE8
   04F1 12                 1430 	ld	(de),a
                           1431 ; genPlus
                           1432 ; genPlusIncr
   04F2 11 D3 00           1433 	ld	de,#_kirbs16 + 0 + 211
                           1434 ; genAssign (pointer)
   04F5 3E 00              1435 	ld	a,#0x00
   04F7 12                 1436 	ld	(de),a
                           1437 ; genPlus
                           1438 ; genPlusIncr
   04F8 11 D4 00           1439 	ld	de,#_kirbs16 + 0 + 212
                           1440 ; genAssign (pointer)
   04FB 3E 50              1441 	ld	a,#0x50
   04FD 12                 1442 	ld	(de),a
                           1443 ; genPlus
                           1444 ; genPlusIncr
   04FE 11 D5 00           1445 	ld	de,#_kirbs16 + 0 + 213
                           1446 ; genAssign (pointer)
   0501 3E 80              1447 	ld	a,#0x80
   0503 12                 1448 	ld	(de),a
                           1449 ; genPlus
                           1450 ; genPlusIncr
   0504 11 D6 00           1451 	ld	de,#_kirbs16 + 0 + 214
                           1452 ; genAssign (pointer)
   0507 3E 10              1453 	ld	a,#0x10
   0509 12                 1454 	ld	(de),a
                           1455 ; genPlus
                           1456 ; genPlusIncr
   050A 11 D7 00           1457 	ld	de,#_kirbs16 + 0 + 215
                           1458 ; genAssign (pointer)
   050D 3E C0              1459 	ld	a,#0xC0
   050F 12                 1460 	ld	(de),a
                           1461 ; genPlus
                           1462 ; genPlusIncr
   0510 11 D8 00           1463 	ld	de,#_kirbs16 + 0 + 216
                           1464 ; genAssign (pointer)
   0513 3E 00              1465 	ld	a,#0x00
   0515 12                 1466 	ld	(de),a
                           1467 ; genPlus
                           1468 ; genPlusIncr
   0516 11 D9 00           1469 	ld	de,#_kirbs16 + 0 + 217
                           1470 ; genAssign (pointer)
   0519 3E C0              1471 	ld	a,#0xC0
   051B 12                 1472 	ld	(de),a
                           1473 ; genPlus
                           1474 ; genPlusIncr
   051C 11 DA 00           1475 	ld	de,#_kirbs16 + 0 + 218
                           1476 ; genAssign (pointer)
   051F 3E 00              1477 	ld	a,#0x00
   0521 12                 1478 	ld	(de),a
                           1479 ; genPlus
                           1480 ; genPlusIncr
   0522 11 DB 00           1481 	ld	de,#_kirbs16 + 0 + 219
                           1482 ; genAssign (pointer)
   0525 3E 80              1483 	ld	a,#0x80
   0527 12                 1484 	ld	(de),a
                           1485 ; genPlus
                           1486 ; genPlusIncr
   0528 11 DC 00           1487 	ld	de,#_kirbs16 + 0 + 220
                           1488 ; genAssign (pointer)
   052B 3E 00              1489 	ld	a,#0x00
   052D 12                 1490 	ld	(de),a
                           1491 ; genPlus
                           1492 ; genPlusIncr
   052E 11 DD 00           1493 	ld	de,#_kirbs16 + 0 + 221
                           1494 ; genAssign (pointer)
   0531 3E 80              1495 	ld	a,#0x80
   0533 12                 1496 	ld	(de),a
                           1497 ; genPlus
                           1498 ; genPlusIncr
   0534 11 DE 00           1499 	ld	de,#_kirbs16 + 0 + 222
                           1500 ; genAssign (pointer)
   0537 3E 30              1501 	ld	a,#0x30
   0539 12                 1502 	ld	(de),a
                           1503 ; genPlus
                           1504 ; genPlusIncr
   053A 11 DF 00           1505 	ld	de,#_kirbs16 + 0 + 223
                           1506 ; genAssign (pointer)
   053D 3E C0              1507 	ld	a,#0xC0
   053F 12                 1508 	ld	(de),a
                           1509 ;	sprite_run.c 74
                           1510 ; genAssign
                           1511 ; AOP_HL for _spritesize
   0540 21 E0 00           1512 	ld	hl,#_spritesize + 0
   0543 36 08              1513 	ld	(hl),#0x08
                           1514 ;	sprite_run.c 74
                           1515 ; genAssign
                           1516 ; AOP_HL for _gravity
   0545 21 FC 00           1517 	ld	hl,#_gravity + 0
   0548 36 FF              1518 	ld	(hl),#0xFF
                           1519 ;	sprite_run.c 74
                           1520 ; genAssign
                           1521 ; AOP_HL for _floorYposition
   054A 21 FE 00           1522 	ld	hl,#_floorYposition + 0
   054D 36 8B              1523 	ld	(hl),#0x8B
                           1524 ;	sprite_run.c 74
                           1525 ; genAssign
                           1526 ; AOP_HL for _spritestate
   054F 21 FF 00           1527 	ld	hl,#_spritestate + 0
   0552 36 00              1528 	ld	(hl),#0x00
                           1529 ;	sprite_run.c 74
                           1530 ; genAssign
                           1531 ; AOP_HL for _speedx
   0554 21 00 01           1532 	ld	hl,#_speedx + 0
   0557 36 02              1533 	ld	(hl),#0x02
                           1534 ;	sprite_run.c 74
                           1535 ; genAssign
                           1536 ; AOP_HL for _fallspeed
   0559 21 01 01           1537 	ld	hl,#_fallspeed + 0
   055C 36 03              1538 	ld	(hl),#0x03
                           1539 ;--------------------------------------------------------
                           1540 ; Home
                           1541 ;--------------------------------------------------------
                           1542 	.area _HOME
                           1543 	.area _CODE
                           1544 ;--------------------------------------------------------
                           1545 ; code
                           1546 ;--------------------------------------------------------
                           1547 	.area _CODE
                           1548 ;	movegamecharacter.c 5
                           1549 ; genLabel
                           1550 ; genFunction
                           1551 ;	---------------------------------
                           1552 ; Function movegamecharacter
                           1553 ; ---------------------------------
   0000                    1554 ___movegamecharacter_start:
   0000                    1555 _movegamecharacter:
   0000 C5                 1556 	push	bc
   0001 E8 FD              1557 	lda	sp,-3(sp)
                           1558 ;	movegamecharacter.c 6
                           1559 ; genAssign
                           1560 ; AOP_STK for 
                           1561 ; AOP_STK for _movegamecharacter_sloc1_1_0
   0003 F8 07              1562 	lda	hl,7(sp)
   0005 2A                 1563 	ld	a,(hl+)
   0006 5E                 1564 	ld	e,(hl)
   0007 F8 00              1565 	lda	hl,0(sp)
   0009 22                 1566 	ld	(hl+),a
   000A 73                 1567 	ld	(hl),e
                           1568 ; genPointerGet
                           1569 ; AOP_STK for _movegamecharacter_sloc1_1_0
                           1570 ; AOP_STK for _movegamecharacter_sloc0_1_0
   000B 2B                 1571 	dec	hl
   000C 5E                 1572 	ld	e,(hl)
   000D 23                 1573 	inc	hl
   000E 56                 1574 	ld	d,(hl)
   000F 1A                 1575 	ld	a,(de)
   0010 23                 1576 	inc	hl
   0011 77                 1577 	ld	(hl),a
                           1578 ; genIpush
                           1579 ; AOP_STK for 
   0012 F8 0A              1580 	lda	hl,10(sp)
   0014 7E                 1581 	ld	a,(hl)
   0015 F5                 1582 	push	af
   0016 33                 1583 	inc	sp
                           1584 ; genIpush
                           1585 ; AOP_STK for 
   0017 2B                 1586 	dec	hl
   0018 7E                 1587 	ld	a,(hl)
   0019 F5                 1588 	push	af
   001A 33                 1589 	inc	sp
                           1590 ; genIpush
                           1591 ; AOP_STK for _movegamecharacter_sloc0_1_0
   001B F8 04              1592 	lda	hl,4(sp)
   001D 7E                 1593 	ld	a,(hl)
   001E F5                 1594 	push	af
   001F 33                 1595 	inc	sp
                           1596 ; genCall
   0020 CD 00 00           1597 	call	_move_sprite
   0023 E8 03              1598 	lda	sp,3(sp)
                           1599 ;	movegamecharacter.c 7
                           1600 ; genPlus
                           1601 ; AOP_STK for 
                           1602 ; AOP_HL for _spritesize
                           1603 ;	genPlusIncr failed
   0025 F8 09              1604 	lda	hl,9(sp)
   0027 7E                 1605 	ld	a,(hl)
   0028 21 E0 00           1606 	ld	hl,#_spritesize + 0
   002B 86                 1607 	add	a,(hl)
   002C 4F                 1608 	ld	c,a
                           1609 ; genPlus
                           1610 ; AOP_STK for _movegamecharacter_sloc1_1_0
                           1611 ; genPlusIncr
   002D F8 00              1612 	lda	hl,0(sp)
   002F 5E                 1613 	ld	e,(hl)
   0030 23                 1614 	inc	hl
   0031 56                 1615 	ld	d,(hl)
   0032 13                 1616 	inc	de
                           1617 ; genPointerGet
   0033 1A                 1618 	ld	a,(de)
   0034 47                 1619 	ld	b,a
                           1620 ; genIpush
                           1621 ; AOP_STK for 
   0035 F8 0A              1622 	lda	hl,10(sp)
   0037 7E                 1623 	ld	a,(hl)
   0038 F5                 1624 	push	af
   0039 33                 1625 	inc	sp
                           1626 ; genIpush
   003A 79                 1627 	ld	a,c
   003B F5                 1628 	push	af
   003C 33                 1629 	inc	sp
                           1630 ; genIpush
   003D 78                 1631 	ld	a,b
   003E F5                 1632 	push	af
   003F 33                 1633 	inc	sp
                           1634 ; genCall
   0040 CD 00 00           1635 	call	_move_sprite
   0043 E8 03              1636 	lda	sp,3(sp)
                           1637 ;	movegamecharacter.c 8
                           1638 ; genPlus
                           1639 ; AOP_STK for 
                           1640 ; AOP_HL for _spritesize
                           1641 ; AOP_STK for _movegamecharacter_sloc0_1_0
                           1642 ;	genPlusIncr failed
   0045 F8 0A              1643 	lda	hl,10(sp)
   0047 7E                 1644 	ld	a,(hl)
   0048 21 E0 00           1645 	ld	hl,#_spritesize + 0
   004B 86                 1646 	add	a,(hl)
   004C F8 02              1647 	lda	hl,2(sp)
   004E 77                 1648 	ld	(hl),a
                           1649 ; genPlus
                           1650 ; AOP_STK for _movegamecharacter_sloc1_1_0
                           1651 ; genPlusIncr
   004F 2B                 1652 	dec	hl
   0050 2B                 1653 	dec	hl
   0051 5E                 1654 	ld	e,(hl)
   0052 23                 1655 	inc	hl
   0053 56                 1656 	ld	d,(hl)
   0054 13                 1657 	inc	de
   0055 13                 1658 	inc	de
                           1659 ; genPointerGet
   0056 1A                 1660 	ld	a,(de)
   0057 47                 1661 	ld	b,a
                           1662 ; genIpush
                           1663 ; AOP_STK for _movegamecharacter_sloc0_1_0
   0058 23                 1664 	inc	hl
   0059 7E                 1665 	ld	a,(hl)
   005A F5                 1666 	push	af
   005B 33                 1667 	inc	sp
                           1668 ; genIpush
                           1669 ; AOP_STK for 
   005C F8 0A              1670 	lda	hl,10(sp)
   005E 7E                 1671 	ld	a,(hl)
   005F F5                 1672 	push	af
   0060 33                 1673 	inc	sp
                           1674 ; genIpush
   0061 78                 1675 	ld	a,b
   0062 F5                 1676 	push	af
   0063 33                 1677 	inc	sp
                           1678 ; genCall
   0064 CD 00 00           1679 	call	_move_sprite
   0067 E8 03              1680 	lda	sp,3(sp)
                           1681 ;	movegamecharacter.c 9
                           1682 ; genPlus
                           1683 ; AOP_STK for _movegamecharacter_sloc1_1_0
                           1684 ; genPlusIncr
                           1685 ;	genPlusIncr failed
   0069 F8 00              1686 	lda	hl,0(sp)
   006B 5E                 1687 	ld	e,(hl)
   006C 23                 1688 	inc	hl
   006D 56                 1689 	ld	d,(hl)
   006E 21 03 00           1690 	ld	hl,#0x0003
   0071 19                 1691 	add	hl,de
   0072 5D                 1692 	ld	e,l
   0073 54                 1693 	ld	d,h
                           1694 ; genPointerGet
   0074 1A                 1695 	ld	a,(de)
   0075 47                 1696 	ld	b,a
                           1697 ; genIpush
                           1698 ; AOP_STK for _movegamecharacter_sloc0_1_0
   0076 F8 02              1699 	lda	hl,2(sp)
   0078 7E                 1700 	ld	a,(hl)
   0079 F5                 1701 	push	af
   007A 33                 1702 	inc	sp
                           1703 ; genIpush
   007B 79                 1704 	ld	a,c
   007C F5                 1705 	push	af
   007D 33                 1706 	inc	sp
                           1707 ; genIpush
   007E 78                 1708 	ld	a,b
   007F F5                 1709 	push	af
   0080 33                 1710 	inc	sp
                           1711 ; genCall
   0081 CD 00 00           1712 	call	_move_sprite
   0084 E8 03              1713 	lda	sp,3(sp)
                           1714 ; genLabel
   0086                    1715 00101$:
                           1716 ; genEndFunction
   0086 E8 03              1717 	lda	sp,3(sp)
   0088 C1                 1718 	pop	bc
   0089 C9                 1719 	ret
   008A                    1720 ___movegamecharacter_end:
                           1721 ;	movegamecharacter.c 12
                           1722 ; genLabel
                           1723 ; genFunction
                           1724 ;	---------------------------------
                           1725 ; Function movegamecharacterlarge
                           1726 ; ---------------------------------
   008A                    1727 ___movegamecharacterlarge_start:
   008A                    1728 _movegamecharacterlarge:
   008A C5                 1729 	push	bc
   008B E8 FD              1730 	lda	sp,-3(sp)
                           1731 ;	movegamecharacter.c 13
                           1732 ; genAssign
                           1733 ; AOP_STK for 
                           1734 ; AOP_STK for _movegamecharacterlarge_sloc1_1_0
   008D F8 07              1735 	lda	hl,7(sp)
   008F 2A                 1736 	ld	a,(hl+)
   0090 5E                 1737 	ld	e,(hl)
   0091 F8 00              1738 	lda	hl,0(sp)
   0093 22                 1739 	ld	(hl+),a
   0094 73                 1740 	ld	(hl),e
                           1741 ; genPointerGet
                           1742 ; AOP_STK for _movegamecharacterlarge_sloc1_1_0
                           1743 ; AOP_STK for _movegamecharacterlarge_sloc0_1_0
   0095 2B                 1744 	dec	hl
   0096 5E                 1745 	ld	e,(hl)
   0097 23                 1746 	inc	hl
   0098 56                 1747 	ld	d,(hl)
   0099 1A                 1748 	ld	a,(de)
   009A 23                 1749 	inc	hl
   009B 77                 1750 	ld	(hl),a
                           1751 ; genIpush
                           1752 ; AOP_STK for 
   009C F8 0A              1753 	lda	hl,10(sp)
   009E 7E                 1754 	ld	a,(hl)
   009F F5                 1755 	push	af
   00A0 33                 1756 	inc	sp
                           1757 ; genIpush
                           1758 ; AOP_STK for 
   00A1 2B                 1759 	dec	hl
   00A2 7E                 1760 	ld	a,(hl)
   00A3 F5                 1761 	push	af
   00A4 33                 1762 	inc	sp
                           1763 ; genIpush
                           1764 ; AOP_STK for _movegamecharacterlarge_sloc0_1_0
   00A5 F8 04              1765 	lda	hl,4(sp)
   00A7 7E                 1766 	ld	a,(hl)
   00A8 F5                 1767 	push	af
   00A9 33                 1768 	inc	sp
                           1769 ; genCall
   00AA CD 00 00           1770 	call	_move_sprite
   00AD E8 03              1771 	lda	sp,3(sp)
                           1772 ;	movegamecharacter.c 14
                           1773 ; genPlus
                           1774 ; AOP_STK for 
                           1775 ; AOP_HL for _spritesize
                           1776 ;	genPlusIncr failed
   00AF F8 09              1777 	lda	hl,9(sp)
   00B1 7E                 1778 	ld	a,(hl)
   00B2 21 E0 00           1779 	ld	hl,#_spritesize + 0
   00B5 86                 1780 	add	a,(hl)
   00B6 4F                 1781 	ld	c,a
                           1782 ; genPlus
                           1783 ; AOP_STK for _movegamecharacterlarge_sloc1_1_0
                           1784 ; genPlusIncr
   00B7 F8 00              1785 	lda	hl,0(sp)
   00B9 5E                 1786 	ld	e,(hl)
   00BA 23                 1787 	inc	hl
   00BB 56                 1788 	ld	d,(hl)
   00BC 13                 1789 	inc	de
                           1790 ; genPointerGet
   00BD 1A                 1791 	ld	a,(de)
   00BE 47                 1792 	ld	b,a
                           1793 ; genIpush
                           1794 ; AOP_STK for 
   00BF F8 0A              1795 	lda	hl,10(sp)
   00C1 7E                 1796 	ld	a,(hl)
   00C2 F5                 1797 	push	af
   00C3 33                 1798 	inc	sp
                           1799 ; genIpush
   00C4 79                 1800 	ld	a,c
   00C5 F5                 1801 	push	af
   00C6 33                 1802 	inc	sp
                           1803 ; genIpush
   00C7 78                 1804 	ld	a,b
   00C8 F5                 1805 	push	af
   00C9 33                 1806 	inc	sp
                           1807 ; genCall
   00CA CD 00 00           1808 	call	_move_sprite
   00CD E8 03              1809 	lda	sp,3(sp)
                           1810 ;	movegamecharacter.c 15
                           1811 ; genPlus
                           1812 ; AOP_STK for 
                           1813 ; AOP_HL for _spritesize
                           1814 ; AOP_STK for _movegamecharacterlarge_sloc0_1_0
                           1815 ;	genPlusIncr failed
   00CF F8 0A              1816 	lda	hl,10(sp)
   00D1 7E                 1817 	ld	a,(hl)
   00D2 21 E0 00           1818 	ld	hl,#_spritesize + 0
   00D5 86                 1819 	add	a,(hl)
   00D6 F8 02              1820 	lda	hl,2(sp)
   00D8 77                 1821 	ld	(hl),a
                           1822 ; genPlus
                           1823 ; AOP_STK for _movegamecharacterlarge_sloc1_1_0
                           1824 ; genPlusIncr
   00D9 2B                 1825 	dec	hl
   00DA 2B                 1826 	dec	hl
   00DB 5E                 1827 	ld	e,(hl)
   00DC 23                 1828 	inc	hl
   00DD 56                 1829 	ld	d,(hl)
   00DE 13                 1830 	inc	de
   00DF 13                 1831 	inc	de
                           1832 ; genPointerGet
   00E0 1A                 1833 	ld	a,(de)
   00E1 47                 1834 	ld	b,a
                           1835 ; genIpush
                           1836 ; AOP_STK for _movegamecharacterlarge_sloc0_1_0
   00E2 23                 1837 	inc	hl
   00E3 7E                 1838 	ld	a,(hl)
   00E4 F5                 1839 	push	af
   00E5 33                 1840 	inc	sp
                           1841 ; genIpush
                           1842 ; AOP_STK for 
   00E6 F8 0A              1843 	lda	hl,10(sp)
   00E8 7E                 1844 	ld	a,(hl)
   00E9 F5                 1845 	push	af
   00EA 33                 1846 	inc	sp
                           1847 ; genIpush
   00EB 78                 1848 	ld	a,b
   00EC F5                 1849 	push	af
   00ED 33                 1850 	inc	sp
                           1851 ; genCall
   00EE CD 00 00           1852 	call	_move_sprite
   00F1 E8 03              1853 	lda	sp,3(sp)
                           1854 ;	movegamecharacter.c 16
                           1855 ; genPlus
                           1856 ; AOP_STK for _movegamecharacterlarge_sloc1_1_0
                           1857 ; genPlusIncr
                           1858 ;	genPlusIncr failed
   00F3 F8 00              1859 	lda	hl,0(sp)
   00F5 5E                 1860 	ld	e,(hl)
   00F6 23                 1861 	inc	hl
   00F7 56                 1862 	ld	d,(hl)
   00F8 21 03 00           1863 	ld	hl,#0x0003
   00FB 19                 1864 	add	hl,de
   00FC 5D                 1865 	ld	e,l
   00FD 54                 1866 	ld	d,h
                           1867 ; genPointerGet
   00FE 1A                 1868 	ld	a,(de)
   00FF 47                 1869 	ld	b,a
                           1870 ; genIpush
                           1871 ; AOP_STK for _movegamecharacterlarge_sloc0_1_0
   0100 F8 02              1872 	lda	hl,2(sp)
   0102 7E                 1873 	ld	a,(hl)
   0103 F5                 1874 	push	af
   0104 33                 1875 	inc	sp
                           1876 ; genIpush
   0105 79                 1877 	ld	a,c
   0106 F5                 1878 	push	af
   0107 33                 1879 	inc	sp
                           1880 ; genIpush
   0108 78                 1881 	ld	a,b
   0109 F5                 1882 	push	af
   010A 33                 1883 	inc	sp
                           1884 ; genCall
   010B CD 00 00           1885 	call	_move_sprite
   010E E8 03              1886 	lda	sp,3(sp)
                           1887 ;	movegamecharacter.c 17
                           1888 ; genMinus
                           1889 ; AOP_STK for 
                           1890 ; AOP_HL for _spritesize
                           1891 ; AOP_STK for _movegamecharacterlarge_sloc0_1_0
   0110 F8 0A              1892 	lda	hl,10(sp)
   0112 7E                 1893 	ld	a,(hl)
   0113 21 E0 00           1894 	ld	hl,#_spritesize + 0
   0116 96                 1895 	sub	a,(hl)
   0117 F8 02              1896 	lda	hl,2(sp)
   0119 77                 1897 	ld	(hl),a
                           1898 ; genPlus
                           1899 ; AOP_STK for _movegamecharacterlarge_sloc1_1_0
                           1900 ; genPlusIncr
                           1901 ;	genPlusIncr failed
   011A 2B                 1902 	dec	hl
   011B 2B                 1903 	dec	hl
   011C 5E                 1904 	ld	e,(hl)
   011D 23                 1905 	inc	hl
   011E 56                 1906 	ld	d,(hl)
   011F 21 04 00           1907 	ld	hl,#0x0004
   0122 19                 1908 	add	hl,de
   0123 5D                 1909 	ld	e,l
   0124 54                 1910 	ld	d,h
                           1911 ; genPointerGet
   0125 1A                 1912 	ld	a,(de)
   0126 47                 1913 	ld	b,a
                           1914 ; genIpush
                           1915 ; AOP_STK for _movegamecharacterlarge_sloc0_1_0
   0127 F8 02              1916 	lda	hl,2(sp)
   0129 7E                 1917 	ld	a,(hl)
   012A F5                 1918 	push	af
   012B 33                 1919 	inc	sp
                           1920 ; genIpush
                           1921 ; AOP_STK for 
   012C F8 0A              1922 	lda	hl,10(sp)
   012E 7E                 1923 	ld	a,(hl)
   012F F5                 1924 	push	af
   0130 33                 1925 	inc	sp
                           1926 ; genIpush
   0131 78                 1927 	ld	a,b
   0132 F5                 1928 	push	af
   0133 33                 1929 	inc	sp
                           1930 ; genCall
   0134 CD 00 00           1931 	call	_move_sprite
   0137 E8 03              1932 	lda	sp,3(sp)
                           1933 ;	movegamecharacter.c 18
                           1934 ; genPlus
                           1935 ; AOP_STK for _movegamecharacterlarge_sloc1_1_0
                           1936 ; genPlusIncr
                           1937 ;	genPlusIncr failed
   0139 F8 00              1938 	lda	hl,0(sp)
   013B 5E                 1939 	ld	e,(hl)
   013C 23                 1940 	inc	hl
   013D 56                 1941 	ld	d,(hl)
   013E 21 05 00           1942 	ld	hl,#0x0005
   0141 19                 1943 	add	hl,de
   0142 5D                 1944 	ld	e,l
   0143 54                 1945 	ld	d,h
                           1946 ; genPointerGet
   0144 1A                 1947 	ld	a,(de)
   0145 47                 1948 	ld	b,a
                           1949 ; genIpush
                           1950 ; AOP_STK for _movegamecharacterlarge_sloc0_1_0
   0146 F8 02              1951 	lda	hl,2(sp)
   0148 7E                 1952 	ld	a,(hl)
   0149 F5                 1953 	push	af
   014A 33                 1954 	inc	sp
                           1955 ; genIpush
   014B 79                 1956 	ld	a,c
   014C F5                 1957 	push	af
   014D 33                 1958 	inc	sp
                           1959 ; genIpush
   014E 78                 1960 	ld	a,b
   014F F5                 1961 	push	af
   0150 33                 1962 	inc	sp
                           1963 ; genCall
   0151 CD 00 00           1964 	call	_move_sprite
   0154 E8 03              1965 	lda	sp,3(sp)
                           1966 ; genLabel
   0156                    1967 00101$:
                           1968 ; genEndFunction
   0156 E8 03              1969 	lda	sp,3(sp)
   0158 C1                 1970 	pop	bc
   0159 C9                 1971 	ret
   015A                    1972 ___movegamecharacterlarge_end:
                           1973 ;	setupbomb.c 5
                           1974 ; genLabel
                           1975 ; genFunction
                           1976 ;	---------------------------------
                           1977 ; Function setupbomb
                           1978 ; ---------------------------------
   015A                    1979 ___setupbomb_start:
   015A                    1980 _setupbomb:
   015A C5                 1981 	push	bc
   015B E8 FD              1982 	lda	sp,-3(sp)
                           1983 ;	setupbomb.c 6
                           1984 ; genPlus
                           1985 ; AOP_STK for _setupbomb_sloc0_1_0
                           1986 ; genPlusIncr
                           1987 ;	genPlusIncr failed
   015D 11 E1 00           1988 	ld	de,#_bomb + 0
   0160 21 04 00           1989 	ld	hl,#0x0004
   0163 19                 1990 	add	hl,de
   0164 7D                 1991 	ld	a,l
   0165 54                 1992 	ld	d,h
   0166 F8 01              1993 	lda	hl,1(sp)
   0168 22                 1994 	ld	(hl+),a
   0169 72                 1995 	ld	(hl),d
                           1996 ; genAssign (pointer)
                           1997 ; AOP_STK for _setupbomb_sloc0_1_0
   016A 2B                 1998 	dec	hl
   016B 5E                 1999 	ld	e,(hl)
   016C 23                 2000 	inc	hl
   016D 56                 2001 	ld	d,(hl)
   016E 3E 0A              2002 	ld	a,#0x0A
   0170 12                 2003 	ld	(de),a
                           2004 ;	setupbomb.c 7
                           2005 ; genPlus
                           2006 ; genPlusIncr
   0171 01 E6 00           2007 	ld	bc,#_bomb + 0 + 5
                           2008 ; genAssign (pointer)
   0174 3E A0              2009 	ld	a,#0xA0
   0176 02                 2010 	ld	(bc),a
                           2011 ;	setupbomb.c 8
                           2012 ; genPlus
                           2013 ; genPlusIncr
   0177 11 E7 00           2014 	ld	de,#_bomb + 0 + 6
                           2015 ; genAssign (pointer)
   017A 3E 0E              2016 	ld	a,#0x0E
   017C 12                 2017 	ld	(de),a
                           2018 ;	setupbomb.c 9
                           2019 ; genPlus
                           2020 ; genPlusIncr
   017D 11 E8 00           2021 	ld	de,#_bomb + 0 + 7
                           2022 ; genAssign (pointer)
   0180 3E 0D              2023 	ld	a,#0x0D
   0182 12                 2024 	ld	(de),a
                           2025 ;	setupbomb.c 12
                           2026 ; genIpush
   0183 3E 08              2027 	ld	a,#0x08
   0185 F5                 2028 	push	af
   0186 33                 2029 	inc	sp
                           2030 ; genIpush
   0187 3E 08              2031 	ld	a,#0x08
   0189 F5                 2032 	push	af
   018A 33                 2033 	inc	sp
                           2034 ; genCall
   018B CD 00 00           2035 	call	_set_sprite_tile
   018E E8 02              2036 	lda	sp,2(sp)
                           2037 ;	setupbomb.c 13
                           2038 ; genAssign (pointer)
   0190 11 E1 00           2039 	ld	de,#_bomb + 0
   0193 3E 08              2040 	ld	a,#0x08
   0195 12                 2041 	ld	(de),a
                           2042 ;	setupbomb.c 14
                           2043 ; genIpush
   0196 3E 09              2044 	ld	a,#0x09
   0198 F5                 2045 	push	af
   0199 33                 2046 	inc	sp
                           2047 ; genIpush
   019A 3E 09              2048 	ld	a,#0x09
   019C F5                 2049 	push	af
   019D 33                 2050 	inc	sp
                           2051 ; genCall
   019E CD 00 00           2052 	call	_set_sprite_tile
   01A1 E8 02              2053 	lda	sp,2(sp)
                           2054 ;	setupbomb.c 15
                           2055 ; genPlus
                           2056 ; genPlusIncr
   01A3 11 E2 00           2057 	ld	de,#_bomb + 0 + 1
                           2058 ; genAssign (pointer)
   01A6 3E 09              2059 	ld	a,#0x09
   01A8 12                 2060 	ld	(de),a
                           2061 ;	setupbomb.c 16
                           2062 ; genIpush
   01A9 3E 0A              2063 	ld	a,#0x0A
   01AB F5                 2064 	push	af
   01AC 33                 2065 	inc	sp
                           2066 ; genIpush
   01AD 3E 0A              2067 	ld	a,#0x0A
   01AF F5                 2068 	push	af
   01B0 33                 2069 	inc	sp
                           2070 ; genCall
   01B1 CD 00 00           2071 	call	_set_sprite_tile
   01B4 E8 02              2072 	lda	sp,2(sp)
                           2073 ;	setupbomb.c 17
                           2074 ; genPlus
                           2075 ; genPlusIncr
   01B6 11 E3 00           2076 	ld	de,#_bomb + 0 + 2
                           2077 ; genAssign (pointer)
   01B9 3E 0A              2078 	ld	a,#0x0A
   01BB 12                 2079 	ld	(de),a
                           2080 ;	setupbomb.c 18
                           2081 ; genIpush
   01BC 3E 0B              2082 	ld	a,#0x0B
   01BE F5                 2083 	push	af
   01BF 33                 2084 	inc	sp
                           2085 ; genIpush
   01C0 3E 0B              2086 	ld	a,#0x0B
   01C2 F5                 2087 	push	af
   01C3 33                 2088 	inc	sp
                           2089 ; genCall
   01C4 CD 00 00           2090 	call	_set_sprite_tile
   01C7 E8 02              2091 	lda	sp,2(sp)
                           2092 ;	setupbomb.c 19
                           2093 ; genPlus
                           2094 ; genPlusIncr
   01C9 11 E4 00           2095 	ld	de,#_bomb + 0 + 3
                           2096 ; genAssign (pointer)
   01CC 3E 0B              2097 	ld	a,#0x0B
   01CE 12                 2098 	ld	(de),a
                           2099 ;	setupbomb.c 21
                           2100 ; genPointerGet
                           2101 ; AOP_STK for _setupbomb_sloc1_1_0
   01CF 0A                 2102 	ld	a,(bc)
   01D0 F8 00              2103 	lda	hl,0(sp)
                           2104 ; genPointerGet
                           2105 ; AOP_STK for _setupbomb_sloc0_1_0
   01D2 22                 2106 	ld	(hl+),a
   01D3 5E                 2107 	ld	e,(hl)
   01D4 23                 2108 	inc	hl
   01D5 56                 2109 	ld	d,(hl)
   01D6 1A                 2110 	ld	a,(de)
   01D7 4F                 2111 	ld	c,a
                           2112 ; genIpush
                           2113 ; AOP_STK for _setupbomb_sloc1_1_0
   01D8 2B                 2114 	dec	hl
   01D9 2B                 2115 	dec	hl
   01DA 7E                 2116 	ld	a,(hl)
   01DB F5                 2117 	push	af
   01DC 33                 2118 	inc	sp
                           2119 ; genIpush
   01DD 79                 2120 	ld	a,c
   01DE F5                 2121 	push	af
   01DF 33                 2122 	inc	sp
                           2123 ; genIpush
   01E0 21 E1 00           2124 	ld	hl,#_bomb + 0
   01E3 E5                 2125 	push	hl
                           2126 ; genCall
   01E4 CD 00 00           2127 	call	_movegamecharacter
   01E7 E8 04              2128 	lda	sp,4(sp)
                           2129 ; genLabel
   01E9                    2130 00101$:
                           2131 ; genEndFunction
   01E9 E8 03              2132 	lda	sp,3(sp)
   01EB C1                 2133 	pop	bc
   01EC C9                 2134 	ret
   01ED                    2135 ___setupbomb_end:
                           2136 ;	setupkirby.c 6
                           2137 ; genLabel
                           2138 ; genFunction
                           2139 ;	---------------------------------
                           2140 ; Function setupkirby
                           2141 ; ---------------------------------
   01ED                    2142 ___setupkirby_start:
   01ED                    2143 _setupkirby:
   01ED C5                 2144 	push	bc
   01EE E8 FD              2145 	lda	sp,-3(sp)
                           2146 ;	setupkirby.c 7
                           2147 ; genPlus
                           2148 ; AOP_STK for _setupkirby_sloc0_1_0
                           2149 ; genPlusIncr
                           2150 ;	genPlusIncr failed
   01F0 11 E9 00           2151 	ld	de,#_kirby + 0
   01F3 21 04 00           2152 	ld	hl,#0x0004
   01F6 19                 2153 	add	hl,de
   01F7 7D                 2154 	ld	a,l
   01F8 54                 2155 	ld	d,h
   01F9 F8 01              2156 	lda	hl,1(sp)
   01FB 22                 2157 	ld	(hl+),a
   01FC 72                 2158 	ld	(hl),d
                           2159 ; genAssign (pointer)
                           2160 ; AOP_STK for _setupkirby_sloc0_1_0
   01FD 2B                 2161 	dec	hl
   01FE 5E                 2162 	ld	e,(hl)
   01FF 23                 2163 	inc	hl
   0200 56                 2164 	ld	d,(hl)
   0201 3E 50              2165 	ld	a,#0x50
   0203 12                 2166 	ld	(de),a
                           2167 ;	setupkirby.c 8
                           2168 ; genPlus
                           2169 ; genPlusIncr
   0204 01 EE 00           2170 	ld	bc,#_kirby + 0 + 5
                           2171 ; genAssign (pointer)
   0207 3E 8B              2172 	ld	a,#0x8B
   0209 02                 2173 	ld	(bc),a
                           2174 ;	setupkirby.c 9
                           2175 ; genPlus
                           2176 ; genPlusIncr
   020A 11 EF 00           2177 	ld	de,#_kirby + 0 + 6
                           2178 ; genAssign (pointer)
   020D 3E 10              2179 	ld	a,#0x10
   020F 12                 2180 	ld	(de),a
                           2181 ;	setupkirby.c 10
                           2182 ; genPlus
                           2183 ; genPlusIncr
   0210 11 F0 00           2184 	ld	de,#_kirby + 0 + 7
                           2185 ; genAssign (pointer)
   0213 3E 10              2186 	ld	a,#0x10
   0215 12                 2187 	ld	(de),a
                           2188 ;	setupkirby.c 13
                           2189 ; genIpush
   0216 3E 00              2190 	ld	a,#0x00
   0218 F5                 2191 	push	af
   0219 33                 2192 	inc	sp
                           2193 ; genIpush
   021A 3E 00              2194 	ld	a,#0x00
   021C F5                 2195 	push	af
   021D 33                 2196 	inc	sp
                           2197 ; genCall
   021E CD 00 00           2198 	call	_set_sprite_tile
   0221 E8 02              2199 	lda	sp,2(sp)
                           2200 ;	setupkirby.c 14
                           2201 ; genAssign (pointer)
   0223 11 E9 00           2202 	ld	de,#_kirby + 0
   0226 3E 00              2203 	ld	a,#0x00
   0228 12                 2204 	ld	(de),a
                           2205 ;	setupkirby.c 15
                           2206 ; genIpush
   0229 3E 01              2207 	ld	a,#0x01
   022B F5                 2208 	push	af
   022C 33                 2209 	inc	sp
                           2210 ; genIpush
   022D 3E 01              2211 	ld	a,#0x01
   022F F5                 2212 	push	af
   0230 33                 2213 	inc	sp
                           2214 ; genCall
   0231 CD 00 00           2215 	call	_set_sprite_tile
   0234 E8 02              2216 	lda	sp,2(sp)
                           2217 ;	setupkirby.c 16
                           2218 ; genPlus
                           2219 ; genPlusIncr
   0236 11 EA 00           2220 	ld	de,#_kirby + 0 + 1
                           2221 ; genAssign (pointer)
   0239 3E 01              2222 	ld	a,#0x01
   023B 12                 2223 	ld	(de),a
                           2224 ;	setupkirby.c 17
                           2225 ; genIpush
   023C 3E 02              2226 	ld	a,#0x02
   023E F5                 2227 	push	af
   023F 33                 2228 	inc	sp
                           2229 ; genIpush
   0240 3E 02              2230 	ld	a,#0x02
   0242 F5                 2231 	push	af
   0243 33                 2232 	inc	sp
                           2233 ; genCall
   0244 CD 00 00           2234 	call	_set_sprite_tile
   0247 E8 02              2235 	lda	sp,2(sp)
                           2236 ;	setupkirby.c 18
                           2237 ; genPlus
                           2238 ; genPlusIncr
   0249 11 EB 00           2239 	ld	de,#_kirby + 0 + 2
                           2240 ; genAssign (pointer)
   024C 3E 02              2241 	ld	a,#0x02
   024E 12                 2242 	ld	(de),a
                           2243 ;	setupkirby.c 19
                           2244 ; genIpush
   024F 3E 03              2245 	ld	a,#0x03
   0251 F5                 2246 	push	af
   0252 33                 2247 	inc	sp
                           2248 ; genIpush
   0253 3E 03              2249 	ld	a,#0x03
   0255 F5                 2250 	push	af
   0256 33                 2251 	inc	sp
                           2252 ; genCall
   0257 CD 00 00           2253 	call	_set_sprite_tile
   025A E8 02              2254 	lda	sp,2(sp)
                           2255 ;	setupkirby.c 20
                           2256 ; genPlus
                           2257 ; genPlusIncr
   025C 11 EC 00           2258 	ld	de,#_kirby + 0 + 3
                           2259 ; genAssign (pointer)
   025F 3E 03              2260 	ld	a,#0x03
   0261 12                 2261 	ld	(de),a
                           2262 ;	setupkirby.c 21
                           2263 ; genPointerGet
                           2264 ; AOP_STK for _setupkirby_sloc1_1_0
   0262 0A                 2265 	ld	a,(bc)
   0263 F8 00              2266 	lda	hl,0(sp)
                           2267 ; genPointerGet
                           2268 ; AOP_STK for _setupkirby_sloc0_1_0
   0265 22                 2269 	ld	(hl+),a
   0266 5E                 2270 	ld	e,(hl)
   0267 23                 2271 	inc	hl
   0268 56                 2272 	ld	d,(hl)
   0269 1A                 2273 	ld	a,(de)
   026A 4F                 2274 	ld	c,a
                           2275 ; genIpush
                           2276 ; AOP_STK for _setupkirby_sloc1_1_0
   026B 2B                 2277 	dec	hl
   026C 2B                 2278 	dec	hl
   026D 7E                 2279 	ld	a,(hl)
   026E F5                 2280 	push	af
   026F 33                 2281 	inc	sp
                           2282 ; genIpush
   0270 79                 2283 	ld	a,c
   0271 F5                 2284 	push	af
   0272 33                 2285 	inc	sp
                           2286 ; genIpush
   0273 21 E9 00           2287 	ld	hl,#_kirby + 0
   0276 E5                 2288 	push	hl
                           2289 ; genCall
   0277 CD 00 00           2290 	call	_movegamecharacter
   027A E8 04              2291 	lda	sp,4(sp)
                           2292 ; genLabel
   027C                    2293 00101$:
                           2294 ; genEndFunction
   027C E8 03              2295 	lda	sp,3(sp)
   027E C1                 2296 	pop	bc
   027F C9                 2297 	ret
   0280                    2298 ___setupkirby_end:
                           2299 ;	setupsmiley.c 5
                           2300 ; genLabel
                           2301 ; genFunction
                           2302 ;	---------------------------------
                           2303 ; Function setupsmiley
                           2304 ; ---------------------------------
   0280                    2305 ___setupsmiley_start:
   0280                    2306 _setupsmiley:
   0280 C5                 2307 	push	bc
   0281 E8 FD              2308 	lda	sp,-3(sp)
                           2309 ;	setupsmiley.c 6
                           2310 ; genPlus
                           2311 ; AOP_STK for _setupsmiley_sloc0_1_0
                           2312 ; genPlusIncr
                           2313 ;	genPlusIncr failed
   0283 11 F1 00           2314 	ld	de,#_smiley + 0
   0286 21 06 00           2315 	ld	hl,#0x0006
   0289 19                 2316 	add	hl,de
   028A 7D                 2317 	ld	a,l
   028B 54                 2318 	ld	d,h
   028C F8 01              2319 	lda	hl,1(sp)
   028E 22                 2320 	ld	(hl+),a
   028F 72                 2321 	ld	(hl),d
                           2322 ; genAssign (pointer)
                           2323 ; AOP_STK for _setupsmiley_sloc0_1_0
   0290 2B                 2324 	dec	hl
   0291 5E                 2325 	ld	e,(hl)
   0292 23                 2326 	inc	hl
   0293 56                 2327 	ld	d,(hl)
   0294 3E 0A              2328 	ld	a,#0x0A
   0296 12                 2329 	ld	(de),a
                           2330 ;	setupsmiley.c 7
                           2331 ; genPlus
                           2332 ; genPlusIncr
   0297 01 F8 00           2333 	ld	bc,#_smiley + 0 + 7
                           2334 ; genAssign (pointer)
   029A 3E 28              2335 	ld	a,#0x28
   029C 02                 2336 	ld	(bc),a
                           2337 ;	setupsmiley.c 8
                           2338 ; genPlus
                           2339 ; genPlusIncr
   029D 11 F9 00           2340 	ld	de,#_smiley + 0 + 8
                           2341 ; genAssign (pointer)
   02A0 3E 10              2342 	ld	a,#0x10
   02A2 12                 2343 	ld	(de),a
                           2344 ;	setupsmiley.c 9
                           2345 ; genPlus
                           2346 ; genPlusIncr
   02A3 11 FA 00           2347 	ld	de,#_smiley + 0 + 9
                           2348 ; genAssign (pointer)
   02A6 3E 18              2349 	ld	a,#0x18
   02A8 12                 2350 	ld	(de),a
                           2351 ;	setupsmiley.c 12
                           2352 ; genIpush
   02A9 3E 04              2353 	ld	a,#0x04
   02AB F5                 2354 	push	af
   02AC 33                 2355 	inc	sp
                           2356 ; genIpush
   02AD 3E 04              2357 	ld	a,#0x04
   02AF F5                 2358 	push	af
   02B0 33                 2359 	inc	sp
                           2360 ; genCall
   02B1 CD 00 00           2361 	call	_set_sprite_tile
   02B4 E8 02              2362 	lda	sp,2(sp)
                           2363 ;	setupsmiley.c 13
                           2364 ; genAssign (pointer)
   02B6 11 F1 00           2365 	ld	de,#_smiley + 0
   02B9 3E 04              2366 	ld	a,#0x04
   02BB 12                 2367 	ld	(de),a
                           2368 ;	setupsmiley.c 14
                           2369 ; genIpush
   02BC 3E 05              2370 	ld	a,#0x05
   02BE F5                 2371 	push	af
   02BF 33                 2372 	inc	sp
                           2373 ; genIpush
   02C0 3E 05              2374 	ld	a,#0x05
   02C2 F5                 2375 	push	af
   02C3 33                 2376 	inc	sp
                           2377 ; genCall
   02C4 CD 00 00           2378 	call	_set_sprite_tile
   02C7 E8 02              2379 	lda	sp,2(sp)
                           2380 ;	setupsmiley.c 15
                           2381 ; genPlus
                           2382 ; genPlusIncr
   02C9 11 F2 00           2383 	ld	de,#_smiley + 0 + 1
                           2384 ; genAssign (pointer)
   02CC 3E 05              2385 	ld	a,#0x05
   02CE 12                 2386 	ld	(de),a
                           2387 ;	setupsmiley.c 16
                           2388 ; genIpush
   02CF 3E 06              2389 	ld	a,#0x06
   02D1 F5                 2390 	push	af
   02D2 33                 2391 	inc	sp
                           2392 ; genIpush
   02D3 3E 06              2393 	ld	a,#0x06
   02D5 F5                 2394 	push	af
   02D6 33                 2395 	inc	sp
                           2396 ; genCall
   02D7 CD 00 00           2397 	call	_set_sprite_tile
   02DA E8 02              2398 	lda	sp,2(sp)
                           2399 ;	setupsmiley.c 17
                           2400 ; genPlus
                           2401 ; genPlusIncr
   02DC 11 F3 00           2402 	ld	de,#_smiley + 0 + 2
                           2403 ; genAssign (pointer)
   02DF 3E 06              2404 	ld	a,#0x06
   02E1 12                 2405 	ld	(de),a
                           2406 ;	setupsmiley.c 18
                           2407 ; genIpush
   02E2 3E 07              2408 	ld	a,#0x07
   02E4 F5                 2409 	push	af
   02E5 33                 2410 	inc	sp
                           2411 ; genIpush
   02E6 3E 07              2412 	ld	a,#0x07
   02E8 F5                 2413 	push	af
   02E9 33                 2414 	inc	sp
                           2415 ; genCall
   02EA CD 00 00           2416 	call	_set_sprite_tile
   02ED E8 02              2417 	lda	sp,2(sp)
                           2418 ;	setupsmiley.c 19
                           2419 ; genPlus
                           2420 ; genPlusIncr
   02EF 11 F4 00           2421 	ld	de,#_smiley + 0 + 3
                           2422 ; genAssign (pointer)
   02F2 3E 07              2423 	ld	a,#0x07
   02F4 12                 2424 	ld	(de),a
                           2425 ;	setupsmiley.c 20
                           2426 ; genIpush
   02F5 3E 0C              2427 	ld	a,#0x0C
   02F7 F5                 2428 	push	af
   02F8 33                 2429 	inc	sp
                           2430 ; genIpush
   02F9 3E 0C              2431 	ld	a,#0x0C
   02FB F5                 2432 	push	af
   02FC 33                 2433 	inc	sp
                           2434 ; genCall
   02FD CD 00 00           2435 	call	_set_sprite_tile
   0300 E8 02              2436 	lda	sp,2(sp)
                           2437 ;	setupsmiley.c 21
                           2438 ; genPlus
                           2439 ; genPlusIncr
   0302 11 F5 00           2440 	ld	de,#_smiley + 0 + 4
                           2441 ; genAssign (pointer)
   0305 3E 0C              2442 	ld	a,#0x0C
   0307 12                 2443 	ld	(de),a
                           2444 ;	setupsmiley.c 22
                           2445 ; genIpush
   0308 3E 0D              2446 	ld	a,#0x0D
   030A F5                 2447 	push	af
   030B 33                 2448 	inc	sp
                           2449 ; genIpush
   030C 3E 0D              2450 	ld	a,#0x0D
   030E F5                 2451 	push	af
   030F 33                 2452 	inc	sp
                           2453 ; genCall
   0310 CD 00 00           2454 	call	_set_sprite_tile
   0313 E8 02              2455 	lda	sp,2(sp)
                           2456 ;	setupsmiley.c 23
                           2457 ; genPlus
                           2458 ; genPlusIncr
   0315 11 F6 00           2459 	ld	de,#_smiley + 0 + 5
                           2460 ; genAssign (pointer)
   0318 3E 0D              2461 	ld	a,#0x0D
   031A 12                 2462 	ld	(de),a
                           2463 ;	setupsmiley.c 25
                           2464 ; genPointerGet
                           2465 ; AOP_STK for _setupsmiley_sloc1_1_0
   031B 0A                 2466 	ld	a,(bc)
   031C F8 00              2467 	lda	hl,0(sp)
                           2468 ; genPointerGet
                           2469 ; AOP_STK for _setupsmiley_sloc0_1_0
   031E 22                 2470 	ld	(hl+),a
   031F 5E                 2471 	ld	e,(hl)
   0320 23                 2472 	inc	hl
   0321 56                 2473 	ld	d,(hl)
   0322 1A                 2474 	ld	a,(de)
   0323 4F                 2475 	ld	c,a
                           2476 ; genIpush
                           2477 ; AOP_STK for _setupsmiley_sloc1_1_0
   0324 2B                 2478 	dec	hl
   0325 2B                 2479 	dec	hl
   0326 7E                 2480 	ld	a,(hl)
   0327 F5                 2481 	push	af
   0328 33                 2482 	inc	sp
                           2483 ; genIpush
   0329 79                 2484 	ld	a,c
   032A F5                 2485 	push	af
   032B 33                 2486 	inc	sp
                           2487 ; genIpush
   032C 21 F1 00           2488 	ld	hl,#_smiley + 0
   032F E5                 2489 	push	hl
                           2490 ; genCall
   0330 CD 8A 00           2491 	call	_movegamecharacterlarge
   0333 E8 04              2492 	lda	sp,4(sp)
                           2493 ; genLabel
   0335                    2494 00101$:
                           2495 ; genEndFunction
   0335 E8 03              2496 	lda	sp,3(sp)
   0337 C1                 2497 	pop	bc
   0338 C9                 2498 	ret
   0339                    2499 ___setupsmiley_end:
                           2500 ;	jump.c 10
                           2501 ; genLabel
                           2502 ; genFunction
                           2503 ;	---------------------------------
                           2504 ; Function checkcollisions
                           2505 ; ---------------------------------
   0339                    2506 ___checkcollisions_start:
   0339                    2507 _checkcollisions:
   0339 C5                 2508 	push	bc
   033A E8 F4              2509 	lda	sp,-12(sp)
                           2510 ;	jump.c 11
                           2511 ; genAssign
                           2512 ; AOP_STK for 
                           2513 ; AOP_STK for _checkcollisions_sloc0_1_0
   033C F8 10              2514 	lda	hl,16(sp)
   033E 2A                 2515 	ld	a,(hl+)
   033F 5E                 2516 	ld	e,(hl)
   0340 F8 0A              2517 	lda	hl,10(sp)
   0342 22                 2518 	ld	(hl+),a
   0343 73                 2519 	ld	(hl),e
                           2520 ; genPlus
                           2521 ; AOP_STK for _checkcollisions_sloc0_1_0
                           2522 ; genPlusIncr
                           2523 ;	genPlusIncr failed
   0344 2B                 2524 	dec	hl
   0345 5E                 2525 	ld	e,(hl)
   0346 23                 2526 	inc	hl
   0347 56                 2527 	ld	d,(hl)
   0348 21 04 00           2528 	ld	hl,#0x0004
   034B 19                 2529 	add	hl,de
   034C 5D                 2530 	ld	e,l
   034D 54                 2531 	ld	d,h
                           2532 ; genPointerGet
                           2533 ; AOP_STK for _checkcollisions_sloc1_1_0
   034E 1A                 2534 	ld	a,(de)
   034F F8 09              2535 	lda	hl,9(sp)
   0351 77                 2536 	ld	(hl),a
                           2537 ; genAssign
                           2538 ; AOP_STK for 
                           2539 ; AOP_STK for _checkcollisions_sloc2_1_0
   0352 F8 12              2540 	lda	hl,18(sp)
   0354 2A                 2541 	ld	a,(hl+)
   0355 5E                 2542 	ld	e,(hl)
   0356 F8 07              2543 	lda	hl,7(sp)
   0358 22                 2544 	ld	(hl+),a
   0359 73                 2545 	ld	(hl),e
                           2546 ; genPlus
                           2547 ; AOP_STK for _checkcollisions_sloc2_1_0
                           2548 ; genPlusIncr
                           2549 ;	genPlusIncr failed
   035A 2B                 2550 	dec	hl
   035B 5E                 2551 	ld	e,(hl)
   035C 23                 2552 	inc	hl
   035D 56                 2553 	ld	d,(hl)
   035E 21 06 00           2554 	ld	hl,#0x0006
   0361 19                 2555 	add	hl,de
   0362 5D                 2556 	ld	e,l
   0363 54                 2557 	ld	d,h
                           2558 ; genPointerGet
                           2559 ; AOP_STK for _checkcollisions_sloc4_1_0
   0364 1A                 2560 	ld	a,(de)
   0365 F8 05              2561 	lda	hl,5(sp)
   0367 77                 2562 	ld	(hl),a
                           2563 ; genCmpLt
                           2564 ; AOP_STK for _checkcollisions_sloc1_1_0
                           2565 ; AOP_STK for _checkcollisions_sloc4_1_0
   0368 AF                 2566 	xor	a,a
   0369 F8 09              2567 	lda	hl,9(sp)
   036B 7E                 2568 	ld	a,(hl)
   036C F8 05              2569 	lda	hl,5(sp)
   036E 9E                 2570 	sbc	a,(hl) ; 2
   036F 3E 00              2571 	ld	a,#0x00
   0371 17                 2572 	rla
   0372 47                 2573 	ld	b,a
                           2574 ; genNot
                           2575 ; AOP_STK for _checkcollisions_sloc3_1_0
   0373 AF                 2576 	xor	a,a
   0374 B0                 2577 	or	a,b
   0375 D6 01              2578 	sub	a,#0x01
   0377 3E 00              2579 	ld	a,#0x00
   0379 17                 2580 	rla
   037A 23                 2581 	inc	hl
                           2582 ; genPlus
                           2583 ; AOP_STK for _checkcollisions_sloc2_1_0
                           2584 ; genPlusIncr
                           2585 ;	genPlusIncr failed
   037B 22                 2586 	ld	(hl+),a
   037C 5E                 2587 	ld	e,(hl)
   037D 23                 2588 	inc	hl
   037E 56                 2589 	ld	d,(hl)
   037F 21 08 00           2590 	ld	hl,#0x0008
   0382 19                 2591 	add	hl,de
   0383 5D                 2592 	ld	e,l
   0384 54                 2593 	ld	d,h
                           2594 ; genPointerGet
   0385 1A                 2595 	ld	a,(de)
                           2596 ; genPlus
                           2597 ; AOP_STK for _checkcollisions_sloc4_1_0
                           2598 ;	genPlusIncr failed
   0386 F8 05              2599 	lda	hl,5(sp)
   0388 86                 2600 	add	a,(hl)
   0389 47                 2601 	ld	b,a
                           2602 ; genCmpGt
                           2603 ; AOP_STK for _checkcollisions_sloc1_1_0
   038A AF                 2604 	xor	a,a
   038B 78                 2605 	ld	a,b
   038C F8 09              2606 	lda	hl,9(sp)
   038E 9E                 2607 	sbc	a,(hl) ; 2
   038F 3E 00              2608 	ld	a,#0x00
   0391 17                 2609 	rla
   0392 47                 2610 	ld	b,a
                           2611 ; genNot
   0393 AF                 2612 	xor	a,a
   0394 B0                 2613 	or	a,b
   0395 D6 01              2614 	sub	a,#0x01
   0397 3E 00              2615 	ld	a,#0x00
   0399 17                 2616 	rla
   039A 47                 2617 	ld	b,a
                           2618 ; genAndOp
                           2619 ; AOP_STK for _checkcollisions_sloc3_1_0
   039B AF                 2620 	xor	a,a
   039C F8 06              2621 	lda	hl,6(sp)
   039E B6                 2622 	or	a,(hl)
   039F 28 02              2623 	jr	z,00103$
   03A1 AF                 2624 	xor	a,a
   03A2 B0                 2625 	or	a,b
   03A3                    2626 00103$:
   03A3 28 02              2627 	jr	z,00104$
   03A5 3E 01              2628 	ld	a,#0x01
   03A7                    2629 00104$:
   03A7 F8 06              2630 	lda	hl,6(sp)
   03A9 77                 2631 	ld	(hl),a
                           2632 ; genPlus
                           2633 ; AOP_STK for _checkcollisions_sloc0_1_0
                           2634 ; genPlusIncr
                           2635 ;	genPlusIncr failed
   03AA F8 0A              2636 	lda	hl,10(sp)
   03AC 5E                 2637 	ld	e,(hl)
   03AD 23                 2638 	inc	hl
   03AE 56                 2639 	ld	d,(hl)
   03AF 21 05 00           2640 	ld	hl,#0x0005
   03B2 19                 2641 	add	hl,de
   03B3 5D                 2642 	ld	e,l
   03B4 54                 2643 	ld	d,h
                           2644 ; genPointerGet
                           2645 ; AOP_STK for _checkcollisions_sloc7_1_0
   03B5 1A                 2646 	ld	a,(de)
   03B6 F8 02              2647 	lda	hl,2(sp)
   03B8 77                 2648 	ld	(hl),a
                           2649 ; genPlus
                           2650 ; AOP_STK for _checkcollisions_sloc2_1_0
                           2651 ; genPlusIncr
                           2652 ;	genPlusIncr failed
   03B9 F8 07              2653 	lda	hl,7(sp)
   03BB 5E                 2654 	ld	e,(hl)
   03BC 23                 2655 	inc	hl
   03BD 56                 2656 	ld	d,(hl)
   03BE 21 07 00           2657 	ld	hl,#0x0007
   03C1 19                 2658 	add	hl,de
   03C2 5D                 2659 	ld	e,l
   03C3 54                 2660 	ld	d,h
                           2661 ; genPointerGet
                           2662 ; AOP_STK for _checkcollisions_sloc6_1_0
   03C4 1A                 2663 	ld	a,(de)
   03C5 F8 03              2664 	lda	hl,3(sp)
   03C7 77                 2665 	ld	(hl),a
                           2666 ; genCmpLt
                           2667 ; AOP_STK for _checkcollisions_sloc7_1_0
                           2668 ; AOP_STK for _checkcollisions_sloc6_1_0
                           2669 ; AOP_STK for _checkcollisions_sloc5_1_0
   03C8 AF                 2670 	xor	a,a
   03C9 2B                 2671 	dec	hl
   03CA 2A                 2672 	ld	a,(hl+)
   03CB 9E                 2673 	sbc	a,(hl) ; 2
   03CC 3E 00              2674 	ld	a,#0x00
   03CE 17                 2675 	rla
   03CF 23                 2676 	inc	hl
   03D0 77                 2677 	ld	(hl),a
                           2678 ; genNot
                           2679 ; AOP_STK for _checkcollisions_sloc5_1_0
   03D1 AF                 2680 	xor	a,a
   03D2 B6                 2681 	or	a,(hl)
   03D3 D6 01              2682 	sub	a,#0x01
   03D5 3E 00              2683 	ld	a,#0x00
   03D7 17                 2684 	rla
   03D8 77                 2685 	ld	(hl),a
                           2686 ; genPlus
                           2687 ; AOP_STK for _checkcollisions_sloc2_1_0
                           2688 ; genPlusIncr
                           2689 ;	genPlusIncr failed
   03D9 F8 07              2690 	lda	hl,7(sp)
   03DB 5E                 2691 	ld	e,(hl)
   03DC 23                 2692 	inc	hl
   03DD 56                 2693 	ld	d,(hl)
   03DE 21 09 00           2694 	ld	hl,#0x0009
   03E1 19                 2695 	add	hl,de
   03E2 5D                 2696 	ld	e,l
   03E3 54                 2697 	ld	d,h
                           2698 ; genPointerGet
   03E4 1A                 2699 	ld	a,(de)
                           2700 ; genPlus
                           2701 ; AOP_STK for _checkcollisions_sloc6_1_0
                           2702 ;	genPlusIncr failed
   03E5 F8 03              2703 	lda	hl,3(sp)
   03E7 86                 2704 	add	a,(hl)
   03E8 4F                 2705 	ld	c,a
                           2706 ; genCmpGt
                           2707 ; AOP_STK for _checkcollisions_sloc7_1_0
   03E9 AF                 2708 	xor	a,a
   03EA 79                 2709 	ld	a,c
   03EB 2B                 2710 	dec	hl
   03EC 9E                 2711 	sbc	a,(hl) ; 2
   03ED 3E 00              2712 	ld	a,#0x00
   03EF 17                 2713 	rla
   03F0 4F                 2714 	ld	c,a
                           2715 ; genNot
   03F1 AF                 2716 	xor	a,a
   03F2 B1                 2717 	or	a,c
   03F3 D6 01              2718 	sub	a,#0x01
   03F5 3E 00              2719 	ld	a,#0x00
   03F7 17                 2720 	rla
   03F8 4F                 2721 	ld	c,a
                           2722 ; genAndOp
                           2723 ; AOP_STK for _checkcollisions_sloc5_1_0
   03F9 AF                 2724 	xor	a,a
   03FA 23                 2725 	inc	hl
   03FB 23                 2726 	inc	hl
   03FC B6                 2727 	or	a,(hl)
   03FD 28 02              2728 	jr	z,00105$
   03FF AF                 2729 	xor	a,a
   0400 B1                 2730 	or	a,c
   0401                    2731 00105$:
   0401 28 02              2732 	jr	z,00106$
   0403 3E 01              2733 	ld	a,#0x01
   0405                    2734 00106$:
   0405 4F                 2735 	ld	c,a
                           2736 ; genAndOp
                           2737 ; AOP_STK for _checkcollisions_sloc3_1_0
                           2738 ; AOP_STK for _checkcollisions_sloc5_1_0
   0406 AF                 2739 	xor	a,a
   0407 F8 06              2740 	lda	hl,6(sp)
   0409 B6                 2741 	or	a,(hl)
   040A 28 02              2742 	jr	z,00107$
   040C AF                 2743 	xor	a,a
   040D B1                 2744 	or	a,c
   040E                    2745 00107$:
   040E 28 02              2746 	jr	z,00108$
   0410 3E 01              2747 	ld	a,#0x01
   0412                    2748 00108$:
   0412 F8 04              2749 	lda	hl,4(sp)
   0414 77                 2750 	ld	(hl),a
                           2751 ; genCmpLt
                           2752 ; AOP_STK for _checkcollisions_sloc4_1_0
                           2753 ; AOP_STK for _checkcollisions_sloc1_1_0
   0415 AF                 2754 	xor	a,a
   0416 23                 2755 	inc	hl
   0417 7E                 2756 	ld	a,(hl)
   0418 F8 09              2757 	lda	hl,9(sp)
   041A 9E                 2758 	sbc	a,(hl) ; 2
   041B 3E 00              2759 	ld	a,#0x00
   041D 17                 2760 	rla
   041E 4F                 2761 	ld	c,a
                           2762 ; genNot
                           2763 ; AOP_STK for _checkcollisions_sloc3_1_0
   041F AF                 2764 	xor	a,a
   0420 B1                 2765 	or	a,c
   0421 D6 01              2766 	sub	a,#0x01
   0423 3E 00              2767 	ld	a,#0x00
   0425 17                 2768 	rla
   0426 F8 06              2769 	lda	hl,6(sp)
   0428 77                 2770 	ld	(hl),a
                           2771 ; genPlus
                           2772 ; AOP_STK for _checkcollisions_sloc0_1_0
                           2773 ; genPlusIncr
                           2774 ;	genPlusIncr failed
   0429 F8 0A              2775 	lda	hl,10(sp)
   042B 5E                 2776 	ld	e,(hl)
   042C 23                 2777 	inc	hl
   042D 56                 2778 	ld	d,(hl)
   042E 21 06 00           2779 	ld	hl,#0x0006
   0431 19                 2780 	add	hl,de
   0432 5D                 2781 	ld	e,l
   0433 54                 2782 	ld	d,h
                           2783 ; genPointerGet
   0434 1A                 2784 	ld	a,(de)
                           2785 ; genPlus
                           2786 ; AOP_STK for _checkcollisions_sloc1_1_0
                           2787 ; AOP_STK for _checkcollisions_sloc2_1_0
                           2788 ;	genPlusIncr failed
   0435 F8 09              2789 	lda	hl,9(sp)
   0437 86                 2790 	add	a,(hl)
   0438 2B                 2791 	dec	hl
   0439 2B                 2792 	dec	hl
   043A 77                 2793 	ld	(hl),a
                           2794 ; genCmpGt
                           2795 ; AOP_STK for _checkcollisions_sloc4_1_0
                           2796 ; AOP_STK for _checkcollisions_sloc2_1_0
   043B AF                 2797 	xor	a,a
   043C 7E                 2798 	ld	a,(hl)
   043D 2B                 2799 	dec	hl
   043E 2B                 2800 	dec	hl
   043F 9E                 2801 	sbc	a,(hl) ; 2
   0440 3E 00              2802 	ld	a,#0x00
   0442 17                 2803 	rla
   0443 47                 2804 	ld	b,a
                           2805 ; genNot
   0444 AF                 2806 	xor	a,a
   0445 B0                 2807 	or	a,b
   0446 D6 01              2808 	sub	a,#0x01
   0448 3E 00              2809 	ld	a,#0x00
   044A 17                 2810 	rla
   044B 47                 2811 	ld	b,a
                           2812 ; genAndOp
                           2813 ; AOP_STK for _checkcollisions_sloc3_1_0
                           2814 ; AOP_STK for _checkcollisions_sloc4_1_0
   044C AF                 2815 	xor	a,a
   044D 23                 2816 	inc	hl
   044E B6                 2817 	or	a,(hl)
   044F 28 02              2818 	jr	z,00109$
   0451 AF                 2819 	xor	a,a
   0452 B0                 2820 	or	a,b
   0453                    2821 00109$:
   0453 28 02              2822 	jr	z,00110$
   0455 3E 01              2823 	ld	a,#0x01
   0457                    2824 00110$:
   0457 F8 05              2825 	lda	hl,5(sp)
   0459 77                 2826 	ld	(hl),a
                           2827 ; genCmpLt
                           2828 ; AOP_STK for _checkcollisions_sloc6_1_0
                           2829 ; AOP_STK for _checkcollisions_sloc7_1_0
   045A AF                 2830 	xor	a,a
   045B 2B                 2831 	dec	hl
   045C 2B                 2832 	dec	hl
   045D 7E                 2833 	ld	a,(hl)
   045E 2B                 2834 	dec	hl
   045F 9E                 2835 	sbc	a,(hl) ; 2
   0460 3E 00              2836 	ld	a,#0x00
   0462 17                 2837 	rla
   0463 47                 2838 	ld	b,a
                           2839 ; genNot
                           2840 ; AOP_STK for _checkcollisions_sloc3_1_0
   0464 AF                 2841 	xor	a,a
   0465 B0                 2842 	or	a,b
   0466 D6 01              2843 	sub	a,#0x01
   0468 3E 00              2844 	ld	a,#0x00
   046A 17                 2845 	rla
   046B F8 06              2846 	lda	hl,6(sp)
   046D 77                 2847 	ld	(hl),a
                           2848 ; genPlus
                           2849 ; AOP_STK for _checkcollisions_sloc0_1_0
                           2850 ; genPlusIncr
                           2851 ;	genPlusIncr failed
   046E F8 0A              2852 	lda	hl,10(sp)
   0470 5E                 2853 	ld	e,(hl)
   0471 23                 2854 	inc	hl
   0472 56                 2855 	ld	d,(hl)
   0473 21 07 00           2856 	ld	hl,#0x0007
   0476 19                 2857 	add	hl,de
   0477 5D                 2858 	ld	e,l
   0478 54                 2859 	ld	d,h
                           2860 ; genPointerGet
   0479 1A                 2861 	ld	a,(de)
                           2862 ; genPlus
                           2863 ; AOP_STK for _checkcollisions_sloc7_1_0
                           2864 ; AOP_STK for _checkcollisions_sloc0_1_0
                           2865 ;	genPlusIncr failed
   047A F8 02              2866 	lda	hl,2(sp)
   047C 86                 2867 	add	a,(hl)
   047D F8 0A              2868 	lda	hl,10(sp)
   047F 77                 2869 	ld	(hl),a
                           2870 ; genCmpGt
                           2871 ; AOP_STK for _checkcollisions_sloc6_1_0
                           2872 ; AOP_STK for _checkcollisions_sloc0_1_0
   0480 AF                 2873 	xor	a,a
   0481 7E                 2874 	ld	a,(hl)
   0482 F8 03              2875 	lda	hl,3(sp)
   0484 9E                 2876 	sbc	a,(hl) ; 2
   0485 3E 00              2877 	ld	a,#0x00
   0487 17                 2878 	rla
   0488 4F                 2879 	ld	c,a
                           2880 ; genNot
   0489 AF                 2881 	xor	a,a
   048A B1                 2882 	or	a,c
   048B D6 01              2883 	sub	a,#0x01
   048D 3E 00              2884 	ld	a,#0x00
   048F 17                 2885 	rla
   0490 4F                 2886 	ld	c,a
                           2887 ; genAndOp
                           2888 ; AOP_STK for _checkcollisions_sloc3_1_0
   0491 AF                 2889 	xor	a,a
   0492 F8 06              2890 	lda	hl,6(sp)
   0494 B6                 2891 	or	a,(hl)
   0495 28 02              2892 	jr	z,00111$
   0497 AF                 2893 	xor	a,a
   0498 B1                 2894 	or	a,c
   0499                    2895 00111$:
   0499 28 02              2896 	jr	z,00112$
   049B 3E 01              2897 	ld	a,#0x01
   049D                    2898 00112$:
   049D 4F                 2899 	ld	c,a
                           2900 ; genAndOp
                           2901 ; AOP_STK for _checkcollisions_sloc4_1_0
   049E AF                 2902 	xor	a,a
   049F F8 05              2903 	lda	hl,5(sp)
   04A1 B6                 2904 	or	a,(hl)
   04A2 28 02              2905 	jr	z,00113$
   04A4 AF                 2906 	xor	a,a
   04A5 B1                 2907 	or	a,c
   04A6                    2908 00113$:
   04A6 28 02              2909 	jr	z,00114$
   04A8 3E 01              2910 	ld	a,#0x01
   04AA                    2911 00114$:
   04AA 4F                 2912 	ld	c,a
                           2913 ; genOrOp
                           2914 ; AOP_STK for _checkcollisions_sloc5_1_0
                           2915 ; AOP_STK for _checkcollisions_sloc6_1_0
   04AB AF                 2916 	xor	a,a
   04AC F8 04              2917 	lda	hl,4(sp)
   04AE B6                 2918 	or	a,(hl)
   04AF 20 02              2919 	jr	nz,00115$
   04B1 AF                 2920 	xor	a,a
   04B2 B1                 2921 	or	a,c
   04B3                    2922 00115$:
   04B3 28 02              2923 	jr	z,00116$
   04B5 3E 01              2924 	ld	a,#0x01
   04B7                    2925 00116$:
   04B7 F8 03              2926 	lda	hl,3(sp)
   04B9 77                 2927 	ld	(hl),a
                           2928 ; genAssign
                           2929 ; AOP_STK for 
                           2930 ; AOP_STK for _checkcollisions_sloc8_1_0
   04BA F8 14              2931 	lda	hl,20(sp)
   04BC 2A                 2932 	ld	a,(hl+)
   04BD 5E                 2933 	ld	e,(hl)
   04BE F8 00              2934 	lda	hl,0(sp)
   04C0 22                 2935 	ld	(hl+),a
   04C1 73                 2936 	ld	(hl),e
                           2937 ; genPlus
                           2938 ; AOP_STK for _checkcollisions_sloc8_1_0
                           2939 ; genPlusIncr
                           2940 ;	genPlusIncr failed
   04C2 2B                 2941 	dec	hl
   04C3 5E                 2942 	ld	e,(hl)
   04C4 23                 2943 	inc	hl
   04C5 56                 2944 	ld	d,(hl)
   04C6 21 04 00           2945 	ld	hl,#0x0004
   04C9 19                 2946 	add	hl,de
   04CA 5D                 2947 	ld	e,l
   04CB 54                 2948 	ld	d,h
                           2949 ; genPointerGet
                           2950 ; AOP_STK for _checkcollisions_sloc4_1_0
   04CC 1A                 2951 	ld	a,(de)
   04CD F8 05              2952 	lda	hl,5(sp)
   04CF 77                 2953 	ld	(hl),a
                           2954 ; genCmpLt
                           2955 ; AOP_STK for _checkcollisions_sloc1_1_0
                           2956 ; AOP_STK for _checkcollisions_sloc4_1_0
   04D0 AF                 2957 	xor	a,a
   04D1 F8 09              2958 	lda	hl,9(sp)
   04D3 7E                 2959 	ld	a,(hl)
   04D4 F8 05              2960 	lda	hl,5(sp)
   04D6 9E                 2961 	sbc	a,(hl) ; 2
   04D7 3E 00              2962 	ld	a,#0x00
   04D9 17                 2963 	rla
   04DA 47                 2964 	ld	b,a
                           2965 ; genNot
                           2966 ; AOP_STK for _checkcollisions_sloc5_1_0
   04DB AF                 2967 	xor	a,a
   04DC B0                 2968 	or	a,b
   04DD D6 01              2969 	sub	a,#0x01
   04DF 3E 00              2970 	ld	a,#0x00
   04E1 17                 2971 	rla
   04E2 2B                 2972 	dec	hl
   04E3 77                 2973 	ld	(hl),a
                           2974 ; genPlus
                           2975 ; AOP_STK for _checkcollisions_sloc8_1_0
                           2976 ; genPlusIncr
                           2977 ;	genPlusIncr failed
   04E4 F8 00              2978 	lda	hl,0(sp)
   04E6 5E                 2979 	ld	e,(hl)
   04E7 23                 2980 	inc	hl
   04E8 56                 2981 	ld	d,(hl)
   04E9 21 06 00           2982 	ld	hl,#0x0006
   04EC 19                 2983 	add	hl,de
   04ED 5D                 2984 	ld	e,l
   04EE 54                 2985 	ld	d,h
                           2986 ; genPointerGet
   04EF 1A                 2987 	ld	a,(de)
                           2988 ; genPlus
                           2989 ; AOP_STK for _checkcollisions_sloc4_1_0
                           2990 ;	genPlusIncr failed
   04F0 F8 05              2991 	lda	hl,5(sp)
   04F2 86                 2992 	add	a,(hl)
   04F3 47                 2993 	ld	b,a
                           2994 ; genCmpGt
                           2995 ; AOP_STK for _checkcollisions_sloc1_1_0
   04F4 AF                 2996 	xor	a,a
   04F5 78                 2997 	ld	a,b
   04F6 F8 09              2998 	lda	hl,9(sp)
   04F8 9E                 2999 	sbc	a,(hl) ; 2
   04F9 3E 00              3000 	ld	a,#0x00
   04FB 17                 3001 	rla
   04FC 47                 3002 	ld	b,a
                           3003 ; genNot
   04FD AF                 3004 	xor	a,a
   04FE B0                 3005 	or	a,b
   04FF D6 01              3006 	sub	a,#0x01
   0501 3E 00              3007 	ld	a,#0x00
   0503 17                 3008 	rla
   0504 47                 3009 	ld	b,a
                           3010 ; genAndOp
                           3011 ; AOP_STK for _checkcollisions_sloc5_1_0
   0505 AF                 3012 	xor	a,a
   0506 F8 04              3013 	lda	hl,4(sp)
   0508 B6                 3014 	or	a,(hl)
   0509 28 02              3015 	jr	z,00117$
   050B AF                 3016 	xor	a,a
   050C B0                 3017 	or	a,b
   050D                    3018 00117$:
   050D 28 02              3019 	jr	z,00118$
   050F 3E 01              3020 	ld	a,#0x01
   0511                    3021 00118$:
   0511 F8 04              3022 	lda	hl,4(sp)
   0513 77                 3023 	ld	(hl),a
                           3024 ; genPlus
                           3025 ; AOP_STK for _checkcollisions_sloc8_1_0
                           3026 ; genPlusIncr
                           3027 ;	genPlusIncr failed
   0514 F8 00              3028 	lda	hl,0(sp)
   0516 5E                 3029 	ld	e,(hl)
   0517 23                 3030 	inc	hl
   0518 56                 3031 	ld	d,(hl)
   0519 21 05 00           3032 	ld	hl,#0x0005
   051C 19                 3033 	add	hl,de
   051D 5D                 3034 	ld	e,l
   051E 54                 3035 	ld	d,h
                           3036 ; genPointerGet
   051F 1A                 3037 	ld	a,(de)
   0520 47                 3038 	ld	b,a
                           3039 ; genCmpLt
                           3040 ; AOP_STK for _checkcollisions_sloc7_1_0
   0521 AF                 3041 	xor	a,a
   0522 F8 02              3042 	lda	hl,2(sp)
   0524 7E                 3043 	ld	a,(hl)
   0525 98                 3044 	sbc	a,b ; 2
   0526 3E 00              3045 	ld	a,#0x00
   0528 17                 3046 	rla
   0529 4F                 3047 	ld	c,a
                           3048 ; genNot
                           3049 ; AOP_STK for _checkcollisions_sloc3_1_0
   052A AF                 3050 	xor	a,a
   052B B1                 3051 	or	a,c
   052C D6 01              3052 	sub	a,#0x01
   052E 3E 00              3053 	ld	a,#0x00
   0530 17                 3054 	rla
   0531 F8 06              3055 	lda	hl,6(sp)
   0533 77                 3056 	ld	(hl),a
                           3057 ; genPlus
                           3058 ; AOP_STK for _checkcollisions_sloc8_1_0
                           3059 ; genPlusIncr
                           3060 ;	genPlusIncr failed
   0534 F8 00              3061 	lda	hl,0(sp)
   0536 5E                 3062 	ld	e,(hl)
   0537 23                 3063 	inc	hl
   0538 56                 3064 	ld	d,(hl)
   0539 21 07 00           3065 	ld	hl,#0x0007
   053C 19                 3066 	add	hl,de
   053D 5D                 3067 	ld	e,l
   053E 54                 3068 	ld	d,h
                           3069 ; genPointerGet
   053F 1A                 3070 	ld	a,(de)
                           3071 ; genPlus
                           3072 ;	genPlusIncr failed
   0540 80                 3073 	add	a,b
   0541 4F                 3074 	ld	c,a
                           3075 ; genCmpGt
                           3076 ; AOP_STK for _checkcollisions_sloc7_1_0
   0542 AF                 3077 	xor	a,a
   0543 79                 3078 	ld	a,c
   0544 F8 02              3079 	lda	hl,2(sp)
   0546 9E                 3080 	sbc	a,(hl) ; 2
   0547 3E 00              3081 	ld	a,#0x00
   0549 17                 3082 	rla
   054A 4F                 3083 	ld	c,a
                           3084 ; genNot
   054B AF                 3085 	xor	a,a
   054C B1                 3086 	or	a,c
   054D D6 01              3087 	sub	a,#0x01
   054F 3E 00              3088 	ld	a,#0x00
   0551 17                 3089 	rla
   0552 4F                 3090 	ld	c,a
                           3091 ; genAndOp
                           3092 ; AOP_STK for _checkcollisions_sloc3_1_0
   0553 AF                 3093 	xor	a,a
   0554 F8 06              3094 	lda	hl,6(sp)
   0556 B6                 3095 	or	a,(hl)
   0557 28 02              3096 	jr	z,00119$
   0559 AF                 3097 	xor	a,a
   055A B1                 3098 	or	a,c
   055B                    3099 00119$:
   055B 28 02              3100 	jr	z,00120$
   055D 3E 01              3101 	ld	a,#0x01
   055F                    3102 00120$:
   055F 4F                 3103 	ld	c,a
                           3104 ; genAndOp
                           3105 ; AOP_STK for _checkcollisions_sloc5_1_0
   0560 AF                 3106 	xor	a,a
   0561 F8 04              3107 	lda	hl,4(sp)
   0563 B6                 3108 	or	a,(hl)
   0564 28 02              3109 	jr	z,00121$
   0566 AF                 3110 	xor	a,a
   0567 B1                 3111 	or	a,c
   0568                    3112 00121$:
   0568 28 02              3113 	jr	z,00122$
   056A 3E 01              3114 	ld	a,#0x01
   056C                    3115 00122$:
   056C 4F                 3116 	ld	c,a
                           3117 ; genOrOp
                           3118 ; AOP_STK for _checkcollisions_sloc6_1_0
                           3119 ; AOP_STK for _checkcollisions_sloc8_1_0
   056D AF                 3120 	xor	a,a
   056E F8 03              3121 	lda	hl,3(sp)
   0570 B6                 3122 	or	a,(hl)
   0571 20 02              3123 	jr	nz,00123$
   0573 AF                 3124 	xor	a,a
   0574 B1                 3125 	or	a,c
   0575                    3126 00123$:
   0575 28 02              3127 	jr	z,00124$
   0577 3E 01              3128 	ld	a,#0x01
   0579                    3129 00124$:
   0579 F8 00              3130 	lda	hl,0(sp)
   057B 77                 3131 	ld	(hl),a
                           3132 ; genCmpLt
                           3133 ; AOP_STK for _checkcollisions_sloc4_1_0
                           3134 ; AOP_STK for _checkcollisions_sloc1_1_0
   057C AF                 3135 	xor	a,a
   057D F8 05              3136 	lda	hl,5(sp)
   057F 7E                 3137 	ld	a,(hl)
   0580 F8 09              3138 	lda	hl,9(sp)
   0582 9E                 3139 	sbc	a,(hl) ; 2
   0583 3E 00              3140 	ld	a,#0x00
   0585 17                 3141 	rla
   0586 4F                 3142 	ld	c,a
                           3143 ; genNot
                           3144 ; AOP_STK for _checkcollisions_sloc6_1_0
   0587 AF                 3145 	xor	a,a
   0588 B1                 3146 	or	a,c
   0589 D6 01              3147 	sub	a,#0x01
   058B 3E 00              3148 	ld	a,#0x00
   058D 17                 3149 	rla
   058E F8 03              3150 	lda	hl,3(sp)
   0590 77                 3151 	ld	(hl),a
                           3152 ; genCmpGt
                           3153 ; AOP_STK for _checkcollisions_sloc4_1_0
                           3154 ; AOP_STK for _checkcollisions_sloc2_1_0
   0591 AF                 3155 	xor	a,a
   0592 F8 07              3156 	lda	hl,7(sp)
   0594 7E                 3157 	ld	a,(hl)
   0595 2B                 3158 	dec	hl
   0596 2B                 3159 	dec	hl
   0597 9E                 3160 	sbc	a,(hl) ; 2
   0598 3E 00              3161 	ld	a,#0x00
   059A 17                 3162 	rla
   059B 4F                 3163 	ld	c,a
                           3164 ; genNot
   059C AF                 3165 	xor	a,a
   059D B1                 3166 	or	a,c
   059E D6 01              3167 	sub	a,#0x01
   05A0 3E 00              3168 	ld	a,#0x00
   05A2 17                 3169 	rla
   05A3 4F                 3170 	ld	c,a
                           3171 ; genAndOp
                           3172 ; AOP_STK for _checkcollisions_sloc6_1_0
   05A4 AF                 3173 	xor	a,a
   05A5 2B                 3174 	dec	hl
   05A6 2B                 3175 	dec	hl
   05A7 B6                 3176 	or	a,(hl)
   05A8 28 02              3177 	jr	z,00125$
   05AA AF                 3178 	xor	a,a
   05AB B1                 3179 	or	a,c
   05AC                    3180 00125$:
   05AC 28 02              3181 	jr	z,00126$
   05AE 3E 01              3182 	ld	a,#0x01
   05B0                    3183 00126$:
   05B0 F8 03              3184 	lda	hl,3(sp)
   05B2 77                 3185 	ld	(hl),a
                           3186 ; genCmpLt
                           3187 ; AOP_STK for _checkcollisions_sloc7_1_0
   05B3 AF                 3188 	xor	a,a
   05B4 78                 3189 	ld	a,b
   05B5 2B                 3190 	dec	hl
   05B6 9E                 3191 	sbc	a,(hl) ; 2
   05B7 3E 00              3192 	ld	a,#0x00
   05B9 17                 3193 	rla
   05BA 4F                 3194 	ld	c,a
                           3195 ; genNot
   05BB AF                 3196 	xor	a,a
   05BC B1                 3197 	or	a,c
   05BD D6 01              3198 	sub	a,#0x01
   05BF 3E 00              3199 	ld	a,#0x00
   05C1 17                 3200 	rla
   05C2 4F                 3201 	ld	c,a
                           3202 ; genCmpGt
                           3203 ; AOP_STK for _checkcollisions_sloc0_1_0
   05C3 AF                 3204 	xor	a,a
   05C4 F8 0A              3205 	lda	hl,10(sp)
   05C6 7E                 3206 	ld	a,(hl)
   05C7 98                 3207 	sbc	a,b ; 2
   05C8 3E 00              3208 	ld	a,#0x00
   05CA 17                 3209 	rla
   05CB 47                 3210 	ld	b,a
                           3211 ; genNot
   05CC AF                 3212 	xor	a,a
   05CD B0                 3213 	or	a,b
   05CE D6 01              3214 	sub	a,#0x01
   05D0 3E 00              3215 	ld	a,#0x00
   05D2 17                 3216 	rla
   05D3 47                 3217 	ld	b,a
                           3218 ; genAndOp
   05D4 AF                 3219 	xor	a,a
   05D5 B1                 3220 	or	a,c
   05D6 28 02              3221 	jr	z,00127$
   05D8 AF                 3222 	xor	a,a
   05D9 B0                 3223 	or	a,b
   05DA                    3224 00127$:
   05DA 28 02              3225 	jr	z,00128$
   05DC 3E 01              3226 	ld	a,#0x01
   05DE                    3227 00128$:
   05DE 4F                 3228 	ld	c,a
                           3229 ; genAndOp
                           3230 ; AOP_STK for _checkcollisions_sloc6_1_0
   05DF AF                 3231 	xor	a,a
   05E0 F8 03              3232 	lda	hl,3(sp)
   05E2 B6                 3233 	or	a,(hl)
   05E3 28 02              3234 	jr	z,00129$
   05E5 AF                 3235 	xor	a,a
   05E6 B1                 3236 	or	a,c
   05E7                    3237 00129$:
   05E7 28 02              3238 	jr	z,00130$
   05E9 3E 01              3239 	ld	a,#0x01
   05EB                    3240 00130$:
   05EB 4F                 3241 	ld	c,a
                           3242 ; genOrOp
                           3243 ; AOP_STK for _checkcollisions_sloc8_1_0
   05EC AF                 3244 	xor	a,a
   05ED F8 00              3245 	lda	hl,0(sp)
   05EF B6                 3246 	or	a,(hl)
   05F0 20 02              3247 	jr	nz,00131$
   05F2 AF                 3248 	xor	a,a
   05F3 B1                 3249 	or	a,c
   05F4                    3250 00131$:
   05F4 28 02              3251 	jr	z,00132$
   05F6 3E 01              3252 	ld	a,#0x01
   05F8                    3253 00132$:
   05F8 4F                 3254 	ld	c,a
                           3255 ; genRet
   05F9 59                 3256 	ld	e,c
                           3257 ; genLabel
   05FA                    3258 00101$:
                           3259 ; genEndFunction
   05FA E8 0C              3260 	lda	sp,12(sp)
   05FC C1                 3261 	pop	bc
   05FD C9                 3262 	ret
   05FE                    3263 ___checkcollisions_end:
                           3264 ;	jump.c 13
                           3265 ; genLabel
                           3266 ; genFunction
                           3267 ;	---------------------------------
                           3268 ; Function wouldhitsurface
                           3269 ; ---------------------------------
   05FE                    3270 ___wouldhitsurface_start:
   05FE                    3271 _wouldhitsurface:
   05FE C5                 3272 	push	bc
                           3273 	
                           3274 ;	jump.c 14
                           3275 ; genCmpLt
                           3276 ; AOP_STK for 
                           3277 ; AOP_HL for _floorYposition
   05FF AF                 3278 	xor	a,a
   0600 F8 04              3279 	lda	hl,4(sp)
   0602 7E                 3280 	ld	a,(hl)
   0603 21 FE 00           3281 	ld	hl,#_floorYposition + 0
   0606 9E                 3282 	sbc	a,(hl) ; 2
   0607 DA 0F 06           3283 	jp	c,00102$
                           3284 ;	jump.c 15
                           3285 ; genAssign
                           3286 ; AOP_HL for _floorYposition
   060A 4E                 3287 	ld	c,(hl)
                           3288 ; genRet
   060B 59                 3289 	ld	e,c
   060C C3 11 06           3290 	jp	00103$
                           3291 ; genLabel
   060F                    3292 00102$:
                           3293 ;	jump.c 17
                           3294 ; genRet
   060F 1E FF              3295 	ld	e,#0xFF
                           3296 ; genLabel
   0611                    3297 00103$:
                           3298 ; genEndFunction
                           3299 	
   0611 C1                 3300 	pop	bc
   0612 C9                 3301 	ret
   0613                    3302 ___wouldhitsurface_end:
                           3303 ;	jump.c 20
                           3304 ; genLabel
                           3305 ; genFunction
                           3306 ;	---------------------------------
                           3307 ; Function jump
                           3308 ; ---------------------------------
   0613                    3309 ___jump_start:
   0613                    3310 _jump:
   0613 C5                 3311 	push	bc
   0614 E8 FC              3312 	lda	sp,-4(sp)
                           3313 ;	jump.c 23
                           3314 ; genCmpEq
                           3315 ; AOP_HL for _jumping
   0616 21 FB 00           3316 	ld	hl,#_jumping + 0
   0619 7E                 3317 	ld	a,(hl)
   061A B7                 3318 	or	a,a
   061B C2 20 06           3319 	jp	nz,00110$
   061E 18 03              3320 	jr	00111$
   0620                    3321 00110$:
   0620 C3 2D 06           3322 	jp	00102$
   0623                    3323 00111$:
                           3324 ;	jump.c 24
                           3325 ; genAssign
                           3326 ; AOP_HL for _jumping
   0623 21 FB 00           3327 	ld	hl,#_jumping + 0
   0626 36 01              3328 	ld	(hl),#0x01
                           3329 ;	jump.c 25
                           3330 ; genAssign
                           3331 ; AOP_HL for _currentspeedY
   0628 21 FD 00           3332 	ld	hl,#_currentspeedY + 0
   062B 36 0C              3333 	ld	(hl),#0x0C
                           3334 ; genLabel
   062D                    3335 00102$:
                           3336 ;	jump.c 27
                           3337 ; genPlus
                           3338 ; AOP_HL for _currentspeedY
                           3339 ; AOP_HL for _gravity
                           3340 ;	genPlusIncr failed
   062D 21 FD 00           3341 	ld	hl,#_currentspeedY + 0
   0630 7E                 3342 	ld	a,(hl)
   0631 21 FC 00           3343 	ld	hl,#_gravity + 0
   0634 86                 3344 	add	a,(hl)
   0635 21 FD 00           3345 	ld	hl,#_currentspeedY + 0
   0638 77                 3346 	ld	(hl),a
                           3347 ;	jump.c 29
                           3348 ; genPlus
                           3349 ; AOP_STK for _jump_sloc1_1_0
                           3350 ; genPlusIncr
                           3351 ;	genPlusIncr failed
   0639 11 E9 00           3352 	ld	de,#_kirby + 0
   063C 21 05 00           3353 	ld	hl,#0x0005
   063F 19                 3354 	add	hl,de
   0640 7D                 3355 	ld	a,l
   0641 54                 3356 	ld	d,h
   0642 F8 00              3357 	lda	hl,0(sp)
   0644 22                 3358 	ld	(hl+),a
   0645 72                 3359 	ld	(hl),d
                           3360 ; genPointerGet
                           3361 ; AOP_STK for _jump_sloc1_1_0
                           3362 ; AOP_STK for _jump_sloc0_1_0
   0646 2B                 3363 	dec	hl
   0647 5E                 3364 	ld	e,(hl)
   0648 23                 3365 	inc	hl
   0649 56                 3366 	ld	d,(hl)
   064A 1A                 3367 	ld	a,(de)
   064B 23                 3368 	inc	hl
   064C 77                 3369 	ld	(hl),a
                           3370 ; genMinus
                           3371 ; AOP_STK for _jump_sloc0_1_0
                           3372 ; AOP_HL for _currentspeedY
   064D 7E                 3373 	ld	a,(hl)
   064E 21 FD 00           3374 	ld	hl,#_currentspeedY + 0
   0651 96                 3375 	sub	a,(hl)
   0652 4F                 3376 	ld	c,a
                           3377 ; genAssign (pointer)
                           3378 ; AOP_STK for _jump_sloc1_1_0
   0653 F8 00              3379 	lda	hl,0(sp)
   0655 5E                 3380 	ld	e,(hl)
   0656 23                 3381 	inc	hl
   0657 56                 3382 	ld	d,(hl)
   0658 79                 3383 	ld	a,c
   0659 12                 3384 	ld	(de),a
                           3385 ;	jump.c 30
                           3386 ; genPointerGet
                           3387 ; AOP_STK for _jump_sloc1_1_0
   065A 2B                 3388 	dec	hl
   065B 5E                 3389 	ld	e,(hl)
   065C 23                 3390 	inc	hl
   065D 56                 3391 	ld	d,(hl)
   065E 1A                 3392 	ld	a,(de)
   065F 47                 3393 	ld	b,a
                           3394 ; genIpush
   0660 79                 3395 	ld	a,c
   0661 F5                 3396 	push	af
   0662 33                 3397 	inc	sp
                           3398 ; genCall
   0663 CD FE 05           3399 	call	_wouldhitsurface
                           3400 ; AOP_STK for _jump_possiblesurfaceY_1_1
   0666 F8 04              3401 	lda	hl,4(sp)
   0668 73                 3402 	ld	(hl),e
   0669 E8 01              3403 	lda	sp,1(sp)
                           3404 ;	jump.c 32
                           3405 ; genCmpEq
                           3406 ; AOP_STK for _jump_possiblesurfaceY_1_1
   066B 7E                 3407 	ld	a,(hl) ; 2
   066C FE FF              3408 	cp	a,#0xFF
                           3409 ; Rule 5
   066E CA 8F 06           3410 	jp	z,00104$
   0671                    3411 00112$:
                           3412 ;	jump.c 33
                           3413 ; genAssign
                           3414 ; AOP_HL for _jumping
   0671 21 FB 00           3415 	ld	hl,#_jumping + 0
   0674 36 00              3416 	ld	(hl),#0x00
                           3417 ;	jump.c 34
                           3418 ; genPlus
                           3419 ; genPlusIncr
   0676 11 ED 00           3420 	ld	de,#_kirby + 0 + 4
                           3421 ; genPointerGet
   0679 1A                 3422 	ld	a,(de)
   067A 4F                 3423 	ld	c,a
                           3424 ; genIpush
                           3425 ; AOP_STK for _jump_possiblesurfaceY_1_1
   067B F8 03              3426 	lda	hl,3(sp)
   067D 7E                 3427 	ld	a,(hl)
   067E F5                 3428 	push	af
   067F 33                 3429 	inc	sp
                           3430 ; genIpush
   0680 79                 3431 	ld	a,c
   0681 F5                 3432 	push	af
   0682 33                 3433 	inc	sp
                           3434 ; genIpush
   0683 21 E9 00           3435 	ld	hl,#_kirby + 0
   0686 E5                 3436 	push	hl
                           3437 ; genCall
   0687 CD 00 00           3438 	call	_movegamecharacter
   068A E8 04              3439 	lda	sp,4(sp)
                           3440 ; genGoto
   068C C3 A3 06           3441 	jp	00106$
                           3442 ; genLabel
   068F                    3443 00104$:
                           3444 ;	jump.c 37
                           3445 ; genPlus
                           3446 ; genPlusIncr
   068F 11 ED 00           3447 	ld	de,#_kirby + 0 + 4
                           3448 ; genPointerGet
   0692 1A                 3449 	ld	a,(de)
   0693 4F                 3450 	ld	c,a
                           3451 ; genIpush
   0694 78                 3452 	ld	a,b
   0695 F5                 3453 	push	af
   0696 33                 3454 	inc	sp
                           3455 ; genIpush
   0697 79                 3456 	ld	a,c
   0698 F5                 3457 	push	af
   0699 33                 3458 	inc	sp
                           3459 ; genIpush
   069A 21 E9 00           3460 	ld	hl,#_kirby + 0
   069D E5                 3461 	push	hl
                           3462 ; genCall
   069E CD 00 00           3463 	call	_movegamecharacter
   06A1 E8 04              3464 	lda	sp,4(sp)
                           3465 ; genLabel
   06A3                    3466 00106$:
                           3467 ; genEndFunction
   06A3 E8 04              3468 	lda	sp,4(sp)
   06A5 C1                 3469 	pop	bc
   06A6 C9                 3470 	ret
   06A7                    3471 ___jump_end:
                           3472 ;	sprite_run.c 18
                           3473 ; genLabel
                           3474 ; genFunction
                           3475 ;	---------------------------------
                           3476 ; Function main
                           3477 ; ---------------------------------
   06A7                    3478 ___main_start:
   06A7                    3479 _main:
   06A7 C5                 3480 	push	bc
   06A8 E8 F7              3481 	lda	sp,-9(sp)
                           3482 ;	sprite_run.c 20
                           3483 ; genIpush
   06AA 21 00 00           3484 	ld	hl,#_kirbs16 + 0
   06AD E5                 3485 	push	hl
                           3486 ; genIpush
   06AE 3E 0E              3487 	ld	a,#0x0E
   06B0 F5                 3488 	push	af
   06B1 33                 3489 	inc	sp
                           3490 ; genIpush
   06B2 3E 00              3491 	ld	a,#0x00
   06B4 F5                 3492 	push	af
   06B5 33                 3493 	inc	sp
                           3494 ; genCall
   06B6 CD 00 00           3495 	call	_set_sprite_data
   06B9 E8 04              3496 	lda	sp,4(sp)
                           3497 ;	sprite_run.c 21
                           3498 ; genCall
   06BB CD ED 01           3499 	call	_setupkirby
                           3500 ;	sprite_run.c 22
                           3501 ; genCall
   06BE CD 80 02           3502 	call	_setupsmiley
                           3503 ;	sprite_run.c 23
                           3504 ; genCall
   06C1 CD 5A 01           3505 	call	_setupbomb
                           3506 ;	sprite_run.c 25
                           3507 ; genOr
                           3508 ; AOP_SFR for _LCDC_REG
                           3509 ; Type res[4] = l[4]&r[1]
                           3510 ; Size res[1] = l[1]&r[1]
   06C4 F0 00              3511 	ldh	a,(_LCDC_REG+0) ; x
   06C6 F6 80              3512 	or	a,#0x80
   06C8 E0 00              3513 	ldh	(_LCDC_REG+0),a
                           3514 ;	sprite_run.c 26
                           3515 ; genOr
                           3516 ; AOP_SFR for _LCDC_REG
                           3517 ; Type res[4] = l[4]&r[1]
                           3518 ; Size res[1] = l[1]&r[1]
   06CA F0 00              3519 	ldh	a,(_LCDC_REG+0) ; x
   06CC F6 02              3520 	or	a,#0x02
   06CE E0 00              3521 	ldh	(_LCDC_REG+0),a
                           3522 ;	sprite_run.c 28
                           3523 ; genLabel
   06D0                    3524 00121$:
                           3525 ; genIpush
   06D0 21 E1 00           3526 	ld	hl,#_bomb + 0
   06D3 E5                 3527 	push	hl
                           3528 ; genIpush
   06D4 21 F1 00           3529 	ld	hl,#_smiley + 0
   06D7 E5                 3530 	push	hl
                           3531 ; genIpush
   06D8 21 E9 00           3532 	ld	hl,#_kirby + 0
   06DB E5                 3533 	push	hl
                           3534 ; genCall
   06DC CD 39 03           3535 	call	_checkcollisions
   06DF 4B                 3536 	ld	c,e
   06E0 E8 06              3537 	lda	sp,6(sp)
                           3538 ; genIfx
                           3539 ; Removed redundent or a,a
   06E2 AF                 3540 	xor	a,a
   06E3 B1                 3541 	or	a,c
   06E4 C2 E2 08           3542 	jp	nz,00123$
                           3543 ;	sprite_run.c 29
                           3544 ; genCall
   06E7 CD 00 00           3545 	call	_joypad
   06EA 4B                 3546 	ld	c,e
                           3547 ; genAnd
   06EB 79                 3548 	ld	a,c
   06EC CB 57              3549 	bit	2,a
   06EE C2 FF 06           3550 	jp	nz,00101$
                           3551 ; genCmpEq
                           3552 ; AOP_HL for _jumping
   06F1 21 FB 00           3553 	ld	hl,#_jumping + 0
   06F4 7E                 3554 	ld	a,(hl) ; 2
   06F5 FE 01              3555 	cp	a,#0x01
   06F7 C2 FC 06           3556 	jp	nz,00138$
   06FA 18 03              3557 	jr	00139$
   06FC                    3558 00138$:
   06FC C3 0C 07           3559 	jp	00102$
   06FF                    3560 00139$:
                           3561 ; genLabel
   06FF                    3562 00101$:
                           3563 ;	sprite_run.c 30
                           3564 ; genIpush
   06FF 21 E9 00           3565 	ld	hl,#_kirby + 0
   0702 E5                 3566 	push	hl
                           3567 ; genIpush
   0703 3E 00              3568 	ld	a,#0x00
   0705 F5                 3569 	push	af
   0706 33                 3570 	inc	sp
                           3571 ; genCall
   0707 CD 13 06           3572 	call	_jump
   070A E8 03              3573 	lda	sp,3(sp)
                           3574 ; genLabel
   070C                    3575 00102$:
                           3576 ;	sprite_run.c 32
                           3577 ; genCall
   070C CD 00 00           3578 	call	_joypad
   070F 4B                 3579 	ld	c,e
                           3580 ; genAnd
   0710 79                 3581 	ld	a,c
   0711 CB 4F              3582 	bit	1,a
   0713 CA 49 07           3583 	jp	z,00105$
                           3584 ;	sprite_run.c 33
                           3585 ; genPlus
                           3586 ; AOP_STK for _main_sloc1_1_0
                           3587 ; genPlusIncr
                           3588 ;	genPlusIncr failed
   0716 11 E9 00           3589 	ld	de,#_kirby + 0
   0719 21 04 00           3590 	ld	hl,#0x0004
   071C 19                 3591 	add	hl,de
   071D 7D                 3592 	ld	a,l
   071E 54                 3593 	ld	d,h
   071F F8 06              3594 	lda	hl,6(sp)
   0721 22                 3595 	ld	(hl+),a
   0722 72                 3596 	ld	(hl),d
                           3597 ; genPointerGet
                           3598 ; AOP_STK for _main_sloc1_1_0
                           3599 ; AOP_STK for _main_sloc0_1_0
   0723 2B                 3600 	dec	hl
   0724 5E                 3601 	ld	e,(hl)
   0725 23                 3602 	inc	hl
   0726 56                 3603 	ld	d,(hl)
   0727 1A                 3604 	ld	a,(de)
   0728 23                 3605 	inc	hl
   0729 77                 3606 	ld	(hl),a
                           3607 ; genMinus
                           3608 ; AOP_STK for _main_sloc0_1_0
   072A 7E                 3609 	ld	a,(hl)
   072B C6 FE              3610 	add	a,#0xFE
   072D 4F                 3611 	ld	c,a
                           3612 ; genAssign (pointer)
                           3613 ; AOP_STK for _main_sloc1_1_0
   072E 2B                 3614 	dec	hl
   072F 2B                 3615 	dec	hl
   0730 5E                 3616 	ld	e,(hl)
   0731 23                 3617 	inc	hl
   0732 56                 3618 	ld	d,(hl)
   0733 79                 3619 	ld	a,c
   0734 12                 3620 	ld	(de),a
                           3621 ;	sprite_run.c 34
                           3622 ; genPlus
                           3623 ; genPlusIncr
   0735 11 EE 00           3624 	ld	de,#_kirby + 0 + 5
                           3625 ; genPointerGet
   0738 1A                 3626 	ld	a,(de)
   0739 47                 3627 	ld	b,a
                           3628 ; genIpush
   073A 78                 3629 	ld	a,b
   073B F5                 3630 	push	af
   073C 33                 3631 	inc	sp
                           3632 ; genIpush
   073D 79                 3633 	ld	a,c
   073E F5                 3634 	push	af
   073F 33                 3635 	inc	sp
                           3636 ; genIpush
   0740 21 E9 00           3637 	ld	hl,#_kirby + 0
   0743 E5                 3638 	push	hl
                           3639 ; genCall
   0744 CD 00 00           3640 	call	_movegamecharacter
   0747 E8 04              3641 	lda	sp,4(sp)
                           3642 ; genLabel
   0749                    3643 00105$:
                           3644 ;	sprite_run.c 36
                           3645 ; genCall
   0749 CD 00 00           3646 	call	_joypad
   074C 4B                 3647 	ld	c,e
                           3648 ; genAnd
   074D 79                 3649 	ld	a,c
   074E CB 47              3650 	bit	0,a
   0750 CA 86 07           3651 	jp	z,00107$
                           3652 ;	sprite_run.c 37
                           3653 ; genPlus
                           3654 ; AOP_STK for _main_sloc2_1_0
                           3655 ; genPlusIncr
                           3656 ;	genPlusIncr failed
   0753 11 E9 00           3657 	ld	de,#_kirby + 0
   0756 21 04 00           3658 	ld	hl,#0x0004
   0759 19                 3659 	add	hl,de
   075A 7D                 3660 	ld	a,l
   075B 54                 3661 	ld	d,h
   075C F8 04              3662 	lda	hl,4(sp)
   075E 22                 3663 	ld	(hl+),a
   075F 72                 3664 	ld	(hl),d
                           3665 ; genPointerGet
                           3666 ; AOP_STK for _main_sloc2_1_0
                           3667 ; AOP_STK for _main_sloc1_1_0
   0760 2B                 3668 	dec	hl
   0761 5E                 3669 	ld	e,(hl)
   0762 23                 3670 	inc	hl
   0763 56                 3671 	ld	d,(hl)
   0764 1A                 3672 	ld	a,(de)
   0765 23                 3673 	inc	hl
   0766 77                 3674 	ld	(hl),a
                           3675 ; genPlus
                           3676 ; AOP_STK for _main_sloc1_1_0
                           3677 ; genPlusIncr
                           3678 ;	genPlusIncr failed
   0767 7E                 3679 	ld	a,(hl)
   0768 C6 02              3680 	add	a,#0x02
   076A 4F                 3681 	ld	c,a
                           3682 ; genAssign (pointer)
                           3683 ; AOP_STK for _main_sloc2_1_0
   076B 2B                 3684 	dec	hl
   076C 2B                 3685 	dec	hl
   076D 5E                 3686 	ld	e,(hl)
   076E 23                 3687 	inc	hl
   076F 56                 3688 	ld	d,(hl)
   0770 79                 3689 	ld	a,c
   0771 12                 3690 	ld	(de),a
                           3691 ;	sprite_run.c 38
                           3692 ; genPlus
                           3693 ; genPlusIncr
   0772 11 EE 00           3694 	ld	de,#_kirby + 0 + 5
                           3695 ; genPointerGet
   0775 1A                 3696 	ld	a,(de)
   0776 47                 3697 	ld	b,a
                           3698 ; genIpush
   0777 78                 3699 	ld	a,b
   0778 F5                 3700 	push	af
   0779 33                 3701 	inc	sp
                           3702 ; genIpush
   077A 79                 3703 	ld	a,c
   077B F5                 3704 	push	af
   077C 33                 3705 	inc	sp
                           3706 ; genIpush
   077D 21 E9 00           3707 	ld	hl,#_kirby + 0
   0780 E5                 3708 	push	hl
                           3709 ; genCall
   0781 CD 00 00           3710 	call	_movegamecharacter
   0784 E8 04              3711 	lda	sp,4(sp)
                           3712 ; genLabel
   0786                    3713 00107$:
                           3714 ;	sprite_run.c 40
                           3715 ; genCmpLt
                           3716 ; AOP_HL for _spritestate
   0786 21 FF 00           3717 	ld	hl,#_spritestate + 0
   0789 7E                 3718 	ld	a,(hl)
   078A FE 03              3719 	cp	#0x03
   078C DA DE 07           3720 	jp	c,00112$
                           3721 ;	sprite_run.c 41
                           3722 ; genPlus
                           3723 ; AOP_STK for _main_sloc1_1_0
                           3724 ; genPlusIncr
                           3725 ;	genPlusIncr failed
   078F 11 F1 00           3726 	ld	de,#_smiley + 0
   0792 21 07 00           3727 	ld	hl,#0x0007
   0795 19                 3728 	add	hl,de
   0796 7D                 3729 	ld	a,l
   0797 54                 3730 	ld	d,h
   0798 F8 06              3731 	lda	hl,6(sp)
   079A 22                 3732 	ld	(hl+),a
   079B 72                 3733 	ld	(hl),d
                           3734 ; genPointerGet
                           3735 ; AOP_STK for _main_sloc1_1_0
                           3736 ; AOP_STK for _main_sloc2_1_0
   079C 2B                 3737 	dec	hl
   079D 5E                 3738 	ld	e,(hl)
   079E 23                 3739 	inc	hl
   079F 56                 3740 	ld	d,(hl)
   07A0 1A                 3741 	ld	a,(de)
   07A1 F8 04              3742 	lda	hl,4(sp)
   07A3 77                 3743 	ld	(hl),a
                           3744 ; genPlus
                           3745 ; genPlusIncr
   07A4 11 F7 00           3746 	ld	de,#_smiley + 0 + 6
                           3747 ; genPointerGet
   07A7 1A                 3748 	ld	a,(de)
   07A8 4F                 3749 	ld	c,a
                           3750 ; genRightShift
                           3751 ; shift right 	result 1, left 1
                           3752 ; Removed redundent load
   07A9 CB 39              3753 	srl	c
   07AB CB 39              3754 	srl	c
   07AD CB 39              3755 	srl	c
                           3756 ; genPlus
                           3757 ; AOP_STK for _main_sloc2_1_0
                           3758 ;	genPlusIncr failed
   07AF 7E                 3759 	ld	a,(hl)
   07B0 81                 3760 	add	a,c
   07B1 4F                 3761 	ld	c,a
                           3762 ; genAssign (pointer)
                           3763 ; AOP_STK for _main_sloc1_1_0
   07B2 23                 3764 	inc	hl
   07B3 23                 3765 	inc	hl
   07B4 5E                 3766 	ld	e,(hl)
   07B5 23                 3767 	inc	hl
   07B6 56                 3768 	ld	d,(hl)
   07B7 79                 3769 	ld	a,c
   07B8 12                 3770 	ld	(de),a
                           3771 ;	sprite_run.c 42
                           3772 ; genPlus
                           3773 ; AOP_HL for _spritestate
                           3774 ; genPlusIncr
   07B9 21 FF 00           3775 	ld	hl,#_spritestate + 0
   07BC 34                 3776 	inc	(hl)
                           3777 ;	sprite_run.c 43
                           3778 ; genCmpLt
                           3779 ; AOP_HL for _spritestate
   07BD 7E                 3780 	ld	a,(hl)
   07BE FE 64              3781 	cp	#0x64
   07C0 DA DE 07           3782 	jp	c,00112$
                           3783 ; genPointerGet
                           3784 ; AOP_STK for _main_sloc1_1_0
   07C3 F8 06              3785 	lda	hl,6(sp)
   07C5 5E                 3786 	ld	e,(hl)
   07C6 23                 3787 	inc	hl
   07C7 56                 3788 	ld	d,(hl)
   07C8 1A                 3789 	ld	a,(de)
   07C9 4F                 3790 	ld	c,a
                           3791 ; genCmpGt
   07CA AF                 3792 	xor	a,a
   07CB 3E 1E              3793 	ld	a,#0x1E
   07CD 99                 3794 	sbc	a,c ; 2
   07CE DA DE 07           3795 	jp	c,00112$
                           3796 ;	sprite_run.c 44
                           3797 ; genAssign
                           3798 ; AOP_HL for _spritestate
   07D1 21 FF 00           3799 	ld	hl,#_spritestate + 0
   07D4 36 00              3800 	ld	(hl),#0x00
                           3801 ;	sprite_run.c 45
                           3802 ; genAssign (pointer)
                           3803 ; AOP_STK for _main_sloc1_1_0
   07D6 F8 06              3804 	lda	hl,6(sp)
   07D8 5E                 3805 	ld	e,(hl)
   07D9 23                 3806 	inc	hl
   07DA 56                 3807 	ld	d,(hl)
   07DB 3E 1E              3808 	ld	a,#0x1E
   07DD 12                 3809 	ld	(de),a
                           3810 ; genLabel
   07DE                    3811 00112$:
                           3812 ;	sprite_run.c 48
                           3813 ; genPlus
                           3814 ; AOP_STK for _main_sloc1_1_0
                           3815 ; genPlusIncr
                           3816 ;	genPlusIncr failed
   07DE 11 F1 00           3817 	ld	de,#_smiley + 0
   07E1 21 06 00           3818 	ld	hl,#0x0006
   07E4 19                 3819 	add	hl,de
   07E5 7D                 3820 	ld	a,l
   07E6 54                 3821 	ld	d,h
   07E7 F8 06              3822 	lda	hl,6(sp)
   07E9 22                 3823 	ld	(hl+),a
   07EA 72                 3824 	ld	(hl),d
                           3825 ; genPointerGet
                           3826 ; AOP_STK for _main_sloc1_1_0
                           3827 ; AOP_STK for _main_sloc2_1_0
   07EB 2B                 3828 	dec	hl
   07EC 5E                 3829 	ld	e,(hl)
   07ED 23                 3830 	inc	hl
   07EE 56                 3831 	ld	d,(hl)
   07EF 1A                 3832 	ld	a,(de)
   07F0 F8 04              3833 	lda	hl,4(sp)
   07F2 77                 3834 	ld	(hl),a
                           3835 ; genAssign
                           3836 ; AOP_HL for _speedx
   07F3 21 00 01           3837 	ld	hl,#_speedx + 0
   07F6 7E                 3838 	ld	a,(hl)
                           3839 ; genPlus
                           3840 ; AOP_STK for _main_sloc2_1_0
                           3841 ;	genPlusIncr failed
   07F7 F8 04              3842 	lda	hl,4(sp)
   07F9 86                 3843 	add	a,(hl)
   07FA 4F                 3844 	ld	c,a
                           3845 ; genAssign (pointer)
                           3846 ; AOP_STK for _main_sloc1_1_0
   07FB 23                 3847 	inc	hl
   07FC 23                 3848 	inc	hl
   07FD 5E                 3849 	ld	e,(hl)
   07FE 23                 3850 	inc	hl
   07FF 56                 3851 	ld	d,(hl)
   0800 79                 3852 	ld	a,c
   0801 12                 3853 	ld	(de),a
                           3854 ;	sprite_run.c 49
                           3855 ; genCmpEq
   0802 79                 3856 	ld	a,c ; 2
   0803 FE 14              3857 	cp	a,#0x14
   0805 C2 0A 08           3858 	jp	nz,00140$
   0808 18 03              3859 	jr	00141$
   080A                    3860 00140$:
   080A C3 16 08           3861 	jp	00114$
   080D                    3862 00141$:
                           3863 ;	sprite_run.c 50
                           3864 ; genAssign
                           3865 ; AOP_HL for _speedx
   080D 21 00 01           3866 	ld	hl,#_speedx + 0
   0810 36 02              3867 	ld	(hl),#0x02
                           3868 ;	sprite_run.c 51
                           3869 ; genPlus
                           3870 ; AOP_HL for _spritestate
                           3871 ; genPlusIncr
   0812 21 FF 00           3872 	ld	hl,#_spritestate + 0
   0815 34                 3873 	inc	(hl)
                           3874 ; genLabel
   0816                    3875 00114$:
                           3876 ;	sprite_run.c 53
                           3877 ; genPointerGet
                           3878 ; AOP_STK for _main_sloc1_1_0
   0816 F8 06              3879 	lda	hl,6(sp)
   0818 5E                 3880 	ld	e,(hl)
   0819 23                 3881 	inc	hl
   081A 56                 3882 	ld	d,(hl)
   081B 1A                 3883 	ld	a,(de)
   081C 4F                 3884 	ld	c,a
                           3885 ; genCmpEq
   081D 79                 3886 	ld	a,c ; 2
   081E FE 90              3887 	cp	a,#0x90
   0820 C2 25 08           3888 	jp	nz,00142$
   0823 18 03              3889 	jr	00143$
   0825                    3890 00142$:
   0825 C3 31 08           3891 	jp	00116$
   0828                    3892 00143$:
                           3893 ;	sprite_run.c 54
                           3894 ; genAssign
                           3895 ; AOP_HL for _speedx
   0828 21 00 01           3896 	ld	hl,#_speedx + 0
   082B 36 FE              3897 	ld	(hl),#0xFE
                           3898 ;	sprite_run.c 55
                           3899 ; genPlus
                           3900 ; AOP_HL for _spritestate
                           3901 ; genPlusIncr
   082D 21 FF 00           3902 	ld	hl,#_spritestate + 0
   0830 34                 3903 	inc	(hl)
                           3904 ; genLabel
   0831                    3905 00116$:
                           3906 ;	sprite_run.c 57
                           3907 ; genPlus
                           3908 ; AOP_STK for _main_sloc3_1_0
                           3909 ; genPlusIncr
                           3910 ;	genPlusIncr failed
   0831 11 F1 00           3911 	ld	de,#_smiley + 0
   0834 21 07 00           3912 	ld	hl,#0x0007
   0837 19                 3913 	add	hl,de
   0838 7D                 3914 	ld	a,l
   0839 54                 3915 	ld	d,h
   083A F8 02              3916 	lda	hl,2(sp)
   083C 22                 3917 	ld	(hl+),a
   083D 72                 3918 	ld	(hl),d
                           3919 ; genPointerGet
                           3920 ; AOP_STK for _main_sloc3_1_0
                           3921 ; AOP_STK for _main_sloc2_1_0
   083E 2B                 3922 	dec	hl
   083F 5E                 3923 	ld	e,(hl)
   0840 23                 3924 	inc	hl
   0841 56                 3925 	ld	d,(hl)
   0842 1A                 3926 	ld	a,(de)
   0843 23                 3927 	inc	hl
                           3928 ; genPointerGet
                           3929 ; AOP_STK for _main_sloc1_1_0
   0844 22                 3930 	ld	(hl+),a
   0845 23                 3931 	inc	hl
   0846 5E                 3932 	ld	e,(hl)
   0847 23                 3933 	inc	hl
   0848 56                 3934 	ld	d,(hl)
   0849 1A                 3935 	ld	a,(de)
   084A 4F                 3936 	ld	c,a
                           3937 ; genIpush
                           3938 ; AOP_STK for _main_sloc2_1_0
   084B F8 04              3939 	lda	hl,4(sp)
   084D 7E                 3940 	ld	a,(hl)
   084E F5                 3941 	push	af
   084F 33                 3942 	inc	sp
                           3943 ; genIpush
   0850 79                 3944 	ld	a,c
   0851 F5                 3945 	push	af
   0852 33                 3946 	inc	sp
                           3947 ; genIpush
   0853 21 F1 00           3948 	ld	hl,#_smiley + 0
   0856 E5                 3949 	push	hl
                           3950 ; genCall
   0857 CD 8A 00           3951 	call	_movegamecharacterlarge
   085A E8 04              3952 	lda	sp,4(sp)
                           3953 ;	sprite_run.c 59
                           3954 ; genPlus
                           3955 ; AOP_STK for _main_sloc4_1_0
                           3956 ; genPlusIncr
                           3957 ;	genPlusIncr failed
   085C 11 E1 00           3958 	ld	de,#_bomb + 0
   085F 21 05 00           3959 	ld	hl,#0x0005
   0862 19                 3960 	add	hl,de
   0863 7D                 3961 	ld	a,l
   0864 54                 3962 	ld	d,h
   0865 F8 00              3963 	lda	hl,0(sp)
   0867 22                 3964 	ld	(hl+),a
   0868 72                 3965 	ld	(hl),d
                           3966 ; genPointerGet
                           3967 ; AOP_STK for _main_sloc4_1_0
                           3968 ; AOP_STK for _main_sloc2_1_0
   0869 2B                 3969 	dec	hl
   086A 5E                 3970 	ld	e,(hl)
   086B 23                 3971 	inc	hl
   086C 56                 3972 	ld	d,(hl)
   086D 1A                 3973 	ld	a,(de)
   086E F8 04              3974 	lda	hl,4(sp)
   0870 77                 3975 	ld	(hl),a
                           3976 ; genAssign
                           3977 ; AOP_HL for _fallspeed
   0871 21 01 01           3978 	ld	hl,#_fallspeed + 0
   0874 7E                 3979 	ld	a,(hl)
                           3980 ; genPlus
                           3981 ; AOP_STK for _main_sloc2_1_0
                           3982 ;	genPlusIncr failed
   0875 F8 04              3983 	lda	hl,4(sp)
   0877 86                 3984 	add	a,(hl)
   0878 4F                 3985 	ld	c,a
                           3986 ; genAssign (pointer)
                           3987 ; AOP_STK for _main_sloc4_1_0
   0879 F8 00              3988 	lda	hl,0(sp)
   087B 5E                 3989 	ld	e,(hl)
   087C 23                 3990 	inc	hl
   087D 56                 3991 	ld	d,(hl)
   087E 79                 3992 	ld	a,c
   087F 12                 3993 	ld	(de),a
                           3994 ;	sprite_run.c 60
                           3995 ; genCmpLt
   0880 79                 3996 	ld	a,c
   0881 FE A0              3997 	cp	#0xA0
   0883 DA 8D 08           3998 	jp	c,00118$
                           3999 ;	sprite_run.c 61
                           4000 ; genAssign (pointer)
                           4001 ; AOP_STK for _main_sloc4_1_0
   0886 2B                 4002 	dec	hl
   0887 5E                 4003 	ld	e,(hl)
   0888 23                 4004 	inc	hl
   0889 56                 4005 	ld	d,(hl)
   088A 3E A0              4006 	ld	a,#0xA0
   088C 12                 4007 	ld	(de),a
                           4008 ; genLabel
   088D                    4009 00118$:
                           4010 ;	sprite_run.c 63
                           4011 ; genPointerGet
                           4012 ; AOP_STK for _main_sloc1_1_0
   088D F8 06              4013 	lda	hl,6(sp)
   088F 5E                 4014 	ld	e,(hl)
   0890 23                 4015 	inc	hl
   0891 56                 4016 	ld	d,(hl)
   0892 1A                 4017 	ld	a,(de)
   0893 4F                 4018 	ld	c,a
                           4019 ; genPlus
                           4020 ; genPlusIncr
   0894 11 ED 00           4021 	ld	de,#_kirby + 0 + 4
                           4022 ; genPointerGet
   0897 1A                 4023 	ld	a,(de)
   0898 47                 4024 	ld	b,a
                           4025 ; genCmpEq
   0899 79                 4026 	ld	a,c
   089A B8                 4027 	cp	b ; 4
   089B C2 A0 08           4028 	jp	nz,00144$
   089E 18 03              4029 	jr	00145$
   08A0                    4030 00144$:
   08A0 C3 BB 08           4031 	jp	00120$
   08A3                    4032 00145$:
                           4033 ;	sprite_run.c 64
                           4034 ; genPointerGet
                           4035 ; AOP_STK for _main_sloc3_1_0
   08A3 F8 02              4036 	lda	hl,2(sp)
   08A5 5E                 4037 	ld	e,(hl)
   08A6 23                 4038 	inc	hl
   08A7 56                 4039 	ld	d,(hl)
   08A8 1A                 4040 	ld	a,(de)
   08A9 4F                 4041 	ld	c,a
                           4042 ; genAssign (pointer)
                           4043 ; AOP_STK for _main_sloc4_1_0
   08AA F8 00              4044 	lda	hl,0(sp)
   08AC 5E                 4045 	ld	e,(hl)
   08AD 23                 4046 	inc	hl
   08AE 56                 4047 	ld	d,(hl)
   08AF 79                 4048 	ld	a,c
   08B0 12                 4049 	ld	(de),a
                           4050 ;	sprite_run.c 65
                           4051 ; genPlus
                           4052 ; genPlusIncr
   08B1 11 E5 00           4053 	ld	de,#_bomb + 0 + 4
                           4054 ; genAssign (pointer)
   08B4 78                 4055 	ld	a,b
   08B5 12                 4056 	ld	(de),a
                           4057 ;	sprite_run.c 66
                           4058 ; genAssign
                           4059 ; AOP_HL for _fallspeed
   08B6 21 01 01           4060 	ld	hl,#_fallspeed + 0
   08B9 36 04              4061 	ld	(hl),#0x04
                           4062 ; genLabel
   08BB                    4063 00120$:
                           4064 ;	sprite_run.c 69
                           4065 ; genPointerGet
                           4066 ; AOP_STK for _main_sloc4_1_0
   08BB F8 00              4067 	lda	hl,0(sp)
   08BD 5E                 4068 	ld	e,(hl)
   08BE 23                 4069 	inc	hl
   08BF 56                 4070 	ld	d,(hl)
   08C0 1A                 4071 	ld	a,(de)
   08C1 4F                 4072 	ld	c,a
                           4073 ; genPlus
                           4074 ; genPlusIncr
   08C2 11 E5 00           4075 	ld	de,#_bomb + 0 + 4
                           4076 ; genPointerGet
   08C5 1A                 4077 	ld	a,(de)
   08C6 47                 4078 	ld	b,a
                           4079 ; genIpush
   08C7 79                 4080 	ld	a,c
   08C8 F5                 4081 	push	af
   08C9 33                 4082 	inc	sp
                           4083 ; genIpush
   08CA 78                 4084 	ld	a,b
   08CB F5                 4085 	push	af
   08CC 33                 4086 	inc	sp
                           4087 ; genIpush
   08CD 21 E1 00           4088 	ld	hl,#_bomb + 0
   08D0 E5                 4089 	push	hl
                           4090 ; genCall
   08D1 CD 00 00           4091 	call	_movegamecharacter
   08D4 E8 04              4092 	lda	sp,4(sp)
                           4093 ;	sprite_run.c 70
                           4094 ; genIpush
   08D6 21 32 00           4095 	ld	hl,#0x0032
   08D9 E5                 4096 	push	hl
                           4097 ; genCall
   08DA CD 00 00           4098 	call	_delay
   08DD E8 02              4099 	lda	sp,2(sp)
                           4100 ; genGoto
   08DF C3 D0 06           4101 	jp	00121$
                           4102 ; genLabel
   08E2                    4103 00123$:
                           4104 ;	sprite_run.c 72
                           4105 ; genIpush
   08E2 21 EF 08           4106 	ld	hl,#__str_0 + 0
   08E5 E5                 4107 	push	hl
                           4108 ; genCall
   08E6 CD 00 00           4109 	call	_printf
   08E9 E8 02              4110 	lda	sp,2(sp)
                           4111 ; genLabel
   08EB                    4112 00124$:
                           4113 ; genEndFunction
   08EB E8 09              4114 	lda	sp,9(sp)
   08ED C1                 4115 	pop	bc
   08EE C9                 4116 	ret
   08EF                    4117 ___main_end:
   08EF                    4118 __str_0:
   08EF 0A                 4119 	.db 0x0A
   08F0 20                 4120 	.ascii " "
   08F1 0A                 4121 	.db 0x0A
   08F2 20                 4122 	.ascii " "
   08F3 0A                 4123 	.db 0x0A
   08F4 20                 4124 	.ascii " "
   08F5 0A                 4125 	.db 0x0A
   08F6 20                 4126 	.ascii " "
   08F7 0A                 4127 	.db 0x0A
   08F8 20 20 20 20 20 20  4128 	.ascii "        Game"
        20 20 47 61 6D 65
   0904 00                 4129 	.db 0x00
                           4130 	.area _CODE
ASxxxx Assembler V01.75  (GameBoy Z80-like CPU), page 1.

Symbol Table

    _BCPD_REG                          **** GX
    _BCPS_REG                          **** GX
    _BGP_REG                           **** GX
    _DIV_REG                           **** GX
    _DMA_REG                           **** GX
    _HDMA1_REG                         **** GX
    _HDMA2_REG                         **** GX
    _HDMA3_REG                         **** GX
    _HDMA4_REG                         **** GX
    _HDMA5_REG                         **** GX
    _IE_REG                            **** GX
    _IF_REG                            **** GX
    _KEY1_REG                          **** GX
    _LCDC_REG                          **** GX
    _LYC_REG                           **** GX
    _LY_REG                            **** GX
    _NR10_REG                          **** GX
    _NR11_REG                          **** GX
    _NR12_REG                          **** GX
    _NR13_REG                          **** GX
    _NR14_REG                          **** GX
    _NR21_REG                          **** GX
    _NR22_REG                          **** GX
    _NR23_REG                          **** GX
    _NR24_REG                          **** GX
    _NR30_REG                          **** GX
    _NR31_REG                          **** GX
    _NR32_REG                          **** GX
    _NR33_REG                          **** GX
    _NR34_REG                          **** GX
    _NR41_REG                          **** GX
    _NR42_REG                          **** GX
    _NR43_REG                          **** GX
    _NR44_REG                          **** GX
    _NR50_REG                          **** GX
    _NR51_REG                          **** GX
    _NR52_REG                          **** GX
    _OBP0_REG                          **** GX
    _OBP1_REG                          **** GX
    _OCPD_REG                          **** GX
    _OCPS_REG                          **** GX
    _P1_REG                            **** GX
    _RP_REG                            **** GX
    _SB_REG                            **** GX
    _SCX_REG                           **** GX
    _SCY_REG                           **** GX
    _SC_REG                            **** GX
    _STAT_REG                          **** GX
    _SVBK_REG                          **** GX
    _TAC_REG                           **** GX
    _TIMA_REG                          **** GX
    _TMA_REG                           **** GX
    _VBK_REG                           **** GX
    _WX_REG                            **** GX
    _WY_REG                            **** GX
  0 ___checkcollisions_end             05FE R
  0 ___checkcollisions_start           0339 R
  0 ___jump_end                        06A7 R
  0 ___jump_start                      0613 R
  0 ___main_end                        08EF R
  0 ___main_start                      06A7 R
  0 ___movegamecharacter_end           008A R
  0 ___movegamecharacter_start         0000 R
  0 ___movegamecharacterlarge_end      015A R
  0 ___movegamecharacterlarge_start    008A R
  0 ___setupbomb_end                   01ED R
  0 ___setupbomb_start                 015A R
  0 ___setupkirby_end                  0280 R
  0 ___setupkirby_start                01ED R
  0 ___setupsmiley_end                 0339 R
  0 ___setupsmiley_start               0280 R
  0 ___wouldhitsurface_end             0613 R
  0 ___wouldhitsurface_start           05FE R
    __cpu                              **** GX
    __io_in                            **** GX
    __io_out                           **** GX
    __io_status                        **** GX
  0 __str_0                            08EF R
  1 _bomb                              00E1 GR
  0 _checkcollisions                   0339 GR
  1 _currentspeedY                     00FD GR
    _delay                             **** GX
  1 _fallspeed                         0101 GR
  1 _floorYposition                    00FE GR
  1 _gravity                           00FC GR
    _joypad                            **** GX
  0 _jump                              0613 GR
  1 _jumping                           00FB GR
  1 _kirbs16                           0000 GR
  1 _kirby                             00E9 GR
  0 _main                              06A7 GR
    _move_sprite                       **** GX
  0 _movegamecharacter                 0000 GR
  0 _movegamecharacterlarge            008A GR
    _printf                            **** GX
    _set_sprite_data                   **** GX
    _set_sprite_tile                   **** GX
  0 _setupbomb                         015A GR
  0 _setupkirby                        01ED GR
  0 _setupsmiley                       0280 GR
  1 _smiley                            00F1 GR
  1 _speedx                            0100 GR
  1 _spritesize                        00E0 GR
  1 _spritestate                       00FF GR
    _sys_time                          **** GX
  0 _wouldhitsurface                   05FE GR

ASxxxx Assembler V01.75  (GameBoy Z80-like CPU), page 2.

Area Table

   0 _CODE                              size  905   flags 0
   1 _DATA                              size  102   flags 0
   2 _OVERLAY                           size    0   flags 0
   3 _ISEG                              size    0   flags 0
   4 _BSEG                              size    0   flags 0
   5 _XSEG                              size    0   flags 0
   6 _GSINIT                            size  55E   flags 0
   7 _GSFINAL                           size    0   flags 0
   8 _HOME                              size    0   flags 0
